(ibikewheelcalc.bikewheelcalc.bicycle_wheel
BicycleWheel
p0
(dp1
S'rim'
p2
(ibikewheelcalc.bikewheelcalc.bicycle_wheel
Rim
p3
(dp4
S'shear_mod'
p5
F26000000000.0
sS'sec_params'
p6
(dp7
sS'area'
p8
F0.0001
sS'I33'
p9
F2.173913043478261e-09
sS'I22'
p10
F2.173913043478261e-09
sS'I11'
p11
F3.846153846153846e-10
sS'Iw'
p12
F0.0
sS'sec_type'
p13
S'general'
p14
sS'radius'
p15
F0.315
sS'young_mod'
p16
F69000000000.0
sbsS'spokes'
p17
(lp18
(ibikewheelcalc.bikewheelcalc.bicycle_wheel
Spoke
p19
(dp20
S'beta'
p21
cnumpy.core.multiarray
scalar
p22
(cnumpy
dtype
p23
(S'f8'
p24
I0
I1
tp25
Rp26
(I3
S'<'
p27
NNNI-1
I-1
I0
tp28
bS'\x00\x00\x00\x00\x00\x00\x00\x00'
p29
tp30
Rp31
sS'diameter'
p32
F0.0015
sS'rim_pt'
p33
(F0.315
F0.0
F0.0
tp34
sS'tension'
p35
F0.0
sS'EA'
p36
F371100.6322052943
sS'length'
p37
g22
(g26
S'\xa9^\x9c\xc2-\x03\xd3?'
p38
tp39
Rp40
sS'n'
p41
cnumpy.core.multiarray
_reconstruct
p42
(cnumpy
ndarray
p43
(I0
tp44
S'b'
p45
tp46
Rp47
(I1
(L3L
tp48
g26
I00
S'\xb8w\xaa\xabM)\xbe? \xbe\xdc\xd4\xf1\xc6\xef?\x00\x00\x00\x00\x00\x00\x00\x00'
p49
tp50
bsS'hub_pt'
p51
(F0.02
F0.0
F0.035
tp52
sg16
F210000000000.0
sS'alpha'
p53
g22
(g26
S'\x9cr\xfawG;\xbe?'
p54
tp55
Rp56
sba(ibikewheelcalc.bikewheelcalc.bicycle_wheel
Spoke
p57
(dp58
g21
g22
(g26
S'\x00\x00\x00\x00\x00\x00\x00\x00'
p59
tp60
Rp61
sg32
F0.0015
sg33
(F0.315
F0.19634954084936207
F-0.0
tp62
sg35
F0.0
sg36
F371100.6322052943
sg37
g22
(g26
S'\xa9^\x9c\xc2-\x03\xd3?'
p63
tp64
Rp65
sg41
g42
(g43
(I0
tp66
g45
tp67
Rp68
(I1
(L3L
tp69
g26
I00
S'\xb8w\xaa\xabM)\xbe\xbf \xbe\xdc\xd4\xf1\xc6\xef?\x00\x00\x00\x00\x00\x00\x00\x00'
p70
tp71
bsg51
(F0.02
F0.19634954084936207
F-0.035
tp72
sg16
F210000000000.0
sg53
g22
(g26
S'\x9cr\xfawG;\xbe\xbf'
p73
tp74
Rp75
sba(ibikewheelcalc.bikewheelcalc.bicycle_wheel
Spoke
p76
(dp77
g21
g22
(g26
S'\x00\x00\x00\x00\x00\x00\x00\x00'
p78
tp79
Rp80
sg32
F0.0015
sg33
(F0.315
F0.39269908169872414
F0.0
tp81
sg35
F0.0
sg36
F371100.6322052943
sg37
g22
(g26
S'\xa9^\x9c\xc2-\x03\xd3?'
p82
tp83
Rp84
sg41
g42
(g43
(I0
tp85
g45
tp86
Rp87
(I1
(L3L
tp88
g26
I00
S'\xb8w\xaa\xabM)\xbe? \xbe\xdc\xd4\xf1\xc6\xef?\x00\x00\x00\x00\x00\x00\x00\x00'
p89
tp90
bsg51
(F0.02
F0.39269908169872414
F0.035
tp91
sg16
F210000000000.0
sg53
g22
(g26
S'\x9cr\xfawG;\xbe?'
p92
tp93
Rp94
sba(ibikewheelcalc.bikewheelcalc.bicycle_wheel
Spoke
p95
(dp96
g21
g22
(g26
S'\x00\x00\x00\x00\x00\x00\x00\x00'
p97
tp98
Rp99
sg32
F0.0015
sg33
(F0.315
F0.5890486225480862
F-0.0
tp100
sg35
F0.0
sg36
F371100.6322052943
sg37
g22
(g26
S'\xa9^\x9c\xc2-\x03\xd3?'
p101
tp102
Rp103
sg41
g42
(g43
(I0
tp104
g45
tp105
Rp106
(I1
(L3L
tp107
g26
I00
S'\xb8w\xaa\xabM)\xbe\xbf \xbe\xdc\xd4\xf1\xc6\xef?\x00\x00\x00\x00\x00\x00\x00\x00'
p108
tp109
bsg51
(F0.02
F0.5890486225480862
F-0.035
tp110
sg16
F210000000000.0
sg53
g22
(g26
S'\x9cr\xfawG;\xbe\xbf'
p111
tp112
Rp113
sba(ibikewheelcalc.bikewheelcalc.bicycle_wheel
Spoke
p114
(dp115
g21
g22
(g26
S'\x00\x00\x00\x00\x00\x00\x00\x00'
p116
tp117
Rp118
sg32
F0.0015
sg33
(F0.315
F0.7853981633974483
F0.0
tp119
sg35
F0.0
sg36
F371100.6322052943
sg37
g22
(g26
S'\xa9^\x9c\xc2-\x03\xd3?'
p120
tp121
Rp122
sg41
g42
(g43
(I0
tp123
g45
tp124
Rp125
(I1
(L3L
tp126
g26
I00
S'\xb8w\xaa\xabM)\xbe? \xbe\xdc\xd4\xf1\xc6\xef?\x00\x00\x00\x00\x00\x00\x00\x00'
p127
tp128
bsg51
(F0.02
F0.7853981633974483
F0.035
tp129
sg16
F210000000000.0
sg53
g22
(g26
S'\x9cr\xfawG;\xbe?'
p130
tp131
Rp132
sba(ibikewheelcalc.bikewheelcalc.bicycle_wheel
Spoke
p133
(dp134
g21
g22
(g26
S'\x00\x00\x00\x00\x00\x00\x00\x00'
p135
tp136
Rp137
sg32
F0.0015
sg33
(F0.315
F0.9817477042468103
F-0.0
tp138
sg35
F0.0
sg36
F371100.6322052943
sg37
g22
(g26
S'\xa9^\x9c\xc2-\x03\xd3?'
p139
tp140
Rp141
sg41
g42
(g43
(I0
tp142
g45
tp143
Rp144
(I1
(L3L
tp145
g26
I00
S'\xb8w\xaa\xabM)\xbe\xbf \xbe\xdc\xd4\xf1\xc6\xef?\x00\x00\x00\x00\x00\x00\x00\x00'
p146
tp147
bsg51
(F0.02
F0.9817477042468103
F-0.035
tp148
sg16
F210000000000.0
sg53
g22
(g26
S'\x9cr\xfawG;\xbe\xbf'
p149
tp150
Rp151
sba(ibikewheelcalc.bikewheelcalc.bicycle_wheel
Spoke
p152
(dp153
g21
g22
(g26
S'\x00\x00\x00\x00\x00\x00\x00\x00'
p154
tp155
Rp156
sg32
F0.0015
sg33
(F0.315
F1.1780972450961724
F0.0
tp157
sg35
F0.0
sg36
F371100.6322052943
sg37
g22
(g26
S'\xa9^\x9c\xc2-\x03\xd3?'
p158
tp159
Rp160
sg41
g42
(g43
(I0
tp161
g45
tp162
Rp163
(I1
(L3L
tp164
g26
I00
S'\xb8w\xaa\xabM)\xbe? \xbe\xdc\xd4\xf1\xc6\xef?\x00\x00\x00\x00\x00\x00\x00\x00'
p165
tp166
bsg51
(F0.02
F1.1780972450961724
F0.035
tp167
sg16
F210000000000.0
sg53
g22
(g26
S'\x9cr\xfawG;\xbe?'
p168
tp169
Rp170
sba(ibikewheelcalc.bikewheelcalc.bicycle_wheel
Spoke
p171
(dp172
g21
g22
(g26
S'\x00\x00\x00\x00\x00\x00\x00\x00'
p173
tp174
Rp175
sg32
F0.0015
sg33
(F0.315
F1.3744467859455345
F-0.0
tp176
sg35
F0.0
sg36
F371100.6322052943
sg37
g22
(g26
S'\xa9^\x9c\xc2-\x03\xd3?'
p177
tp178
Rp179
sg41
g42
(g43
(I0
tp180
g45
tp181
Rp182
(I1
(L3L
tp183
g26
I00
S'\xb8w\xaa\xabM)\xbe\xbf \xbe\xdc\xd4\xf1\xc6\xef?\x00\x00\x00\x00\x00\x00\x00\x00'
p184
tp185
bsg51
(F0.02
F1.3744467859455345
F-0.035
tp186
sg16
F210000000000.0
sg53
g22
(g26
S'\x9cr\xfawG;\xbe\xbf'
p187
tp188
Rp189
sba(ibikewheelcalc.bikewheelcalc.bicycle_wheel
Spoke
p190
(dp191
g21
g22
(g26
S'\x00\x00\x00\x00\x00\x00\x00\x00'
p192
tp193
Rp194
sg32
F0.0015
sg33
(F0.315
F1.5707963267948966
F0.0
tp195
sg35
F0.0
sg36
F371100.6322052943
sg37
g22
(g26
S'\xa9^\x9c\xc2-\x03\xd3?'
p196
tp197
Rp198
sg41
g42
(g43
(I0
tp199
g45
tp200
Rp201
(I1
(L3L
tp202
g26
I00
S'\xb8w\xaa\xabM)\xbe? \xbe\xdc\xd4\xf1\xc6\xef?\x00\x00\x00\x00\x00\x00\x00\x00'
p203
tp204
bsg51
(F0.02
F1.5707963267948966
F0.035
tp205
sg16
F210000000000.0
sg53
g22
(g26
S'\x9cr\xfawG;\xbe?'
p206
tp207
Rp208
sba(ibikewheelcalc.bikewheelcalc.bicycle_wheel
Spoke
p209
(dp210
g21
g22
(g26
S'\x00\x00\x00\x00\x00\x00\x00\x00'
p211
tp212
Rp213
sg32
F0.0015
sg33
(F0.315
F1.7671458676442586
F-0.0
tp214
sg35
F0.0
sg36
F371100.6322052943
sg37
g22
(g26
S'\xa9^\x9c\xc2-\x03\xd3?'
p215
tp216
Rp217
sg41
g42
(g43
(I0
tp218
g45
tp219
Rp220
(I1
(L3L
tp221
g26
I00
S'\xb8w\xaa\xabM)\xbe\xbf \xbe\xdc\xd4\xf1\xc6\xef?\x00\x00\x00\x00\x00\x00\x00\x00'
p222
tp223
bsg51
(F0.02
F1.7671458676442586
F-0.035
tp224
sg16
F210000000000.0
sg53
g22
(g26
S'\x9cr\xfawG;\xbe\xbf'
p225
tp226
Rp227
sba(ibikewheelcalc.bikewheelcalc.bicycle_wheel
Spoke
p228
(dp229
g21
g22
(g26
S'\x00\x00\x00\x00\x00\x00\x00\x00'
p230
tp231
Rp232
sg32
F0.0015
sg33
(F0.315
F1.9634954084936207
F0.0
tp233
sg35
F0.0
sg36
F371100.6322052943
sg37
g22
(g26
S'\xa9^\x9c\xc2-\x03\xd3?'
p234
tp235
Rp236
sg41
g42
(g43
(I0
tp237
g45
tp238
Rp239
(I1
(L3L
tp240
g26
I00
S'\xb8w\xaa\xabM)\xbe? \xbe\xdc\xd4\xf1\xc6\xef?\x00\x00\x00\x00\x00\x00\x00\x00'
p241
tp242
bsg51
(F0.02
F1.9634954084936207
F0.035
tp243
sg16
F210000000000.0
sg53
g22
(g26
S'\x9cr\xfawG;\xbe?'
p244
tp245
Rp246
sba(ibikewheelcalc.bikewheelcalc.bicycle_wheel
Spoke
p247
(dp248
g21
g22
(g26
S'\x00\x00\x00\x00\x00\x00\x00\x00'
p249
tp250
Rp251
sg32
F0.0015
sg33
(F0.315
F2.1598449493429825
F-0.0
tp252
sg35
F0.0
sg36
F371100.6322052943
sg37
g22
(g26
S'\xa9^\x9c\xc2-\x03\xd3?'
p253
tp254
Rp255
sg41
g42
(g43
(I0
tp256
g45
tp257
Rp258
(I1
(L3L
tp259
g26
I00
S'\xb8w\xaa\xabM)\xbe\xbf \xbe\xdc\xd4\xf1\xc6\xef?\x00\x00\x00\x00\x00\x00\x00\x00'
p260
tp261
bsg51
(F0.02
F2.1598449493429825
F-0.035
tp262
sg16
F210000000000.0
sg53
g22
(g26
S'\x9cr\xfawG;\xbe\xbf'
p263
tp264
Rp265
sba(ibikewheelcalc.bikewheelcalc.bicycle_wheel
Spoke
p266
(dp267
g21
g22
(g26
S'\x00\x00\x00\x00\x00\x00\x00\x00'
p268
tp269
Rp270
sg32
F0.0015
sg33
(F0.315
F2.356194490192345
F0.0
tp271
sg35
F0.0
sg36
F371100.6322052943
sg37
g22
(g26
S'\xa9^\x9c\xc2-\x03\xd3?'
p272
tp273
Rp274
sg41
g42
(g43
(I0
tp275
g45
tp276
Rp277
(I1
(L3L
tp278
g26
I00
S'\xb8w\xaa\xabM)\xbe? \xbe\xdc\xd4\xf1\xc6\xef?\x00\x00\x00\x00\x00\x00\x00\x00'
p279
tp280
bsg51
(F0.02
F2.356194490192345
F0.035
tp281
sg16
F210000000000.0
sg53
g22
(g26
S'\x9cr\xfawG;\xbe?'
p282
tp283
Rp284
sba(ibikewheelcalc.bikewheelcalc.bicycle_wheel
Spoke
p285
(dp286
g21
g22
(g26
S'\x00\x00\x00\x00\x00\x00\x00\x00'
p287
tp288
Rp289
sg32
F0.0015
sg33
(F0.315
F2.552544031041707
F-0.0
tp290
sg35
F0.0
sg36
F371100.6322052943
sg37
g22
(g26
S'\xa9^\x9c\xc2-\x03\xd3?'
p291
tp292
Rp293
sg41
g42
(g43
(I0
tp294
g45
tp295
Rp296
(I1
(L3L
tp297
g26
I00
S'\xb8w\xaa\xabM)\xbe\xbf \xbe\xdc\xd4\xf1\xc6\xef?\x00\x00\x00\x00\x00\x00\x00\x00'
p298
tp299
bsg51
(F0.02
F2.552544031041707
F-0.035
tp300
sg16
F210000000000.0
sg53
g22
(g26
S'\x9cr\xfawG;\xbe\xbf'
p301
tp302
Rp303
sba(ibikewheelcalc.bikewheelcalc.bicycle_wheel
Spoke
p304
(dp305
g21
g22
(g26
S'\x00\x00\x00\x00\x00\x00\x00\x00'
p306
tp307
Rp308
sg32
F0.0015
sg33
(F0.315
F2.748893571891069
F0.0
tp309
sg35
F0.0
sg36
F371100.6322052943
sg37
g22
(g26
S'\xa9^\x9c\xc2-\x03\xd3?'
p310
tp311
Rp312
sg41
g42
(g43
(I0
tp313
g45
tp314
Rp315
(I1
(L3L
tp316
g26
I00
S'\xb8w\xaa\xabM)\xbe? \xbe\xdc\xd4\xf1\xc6\xef?\x00\x00\x00\x00\x00\x00\x00\x00'
p317
tp318
bsg51
(F0.02
F2.748893571891069
F0.035
tp319
sg16
F210000000000.0
sg53
g22
(g26
S'\x9cr\xfawG;\xbe?'
p320
tp321
Rp322
sba(ibikewheelcalc.bikewheelcalc.bicycle_wheel
Spoke
p323
(dp324
g21
g22
(g26
S'\x00\x00\x00\x00\x00\x00\x00\x00'
p325
tp326
Rp327
sg32
F0.0015
sg33
(F0.315
F2.945243112740431
F-0.0
tp328
sg35
F0.0
sg36
F371100.6322052943
sg37
g22
(g26
S'\xa9^\x9c\xc2-\x03\xd3?'
p329
tp330
Rp331
sg41
g42
(g43
(I0
tp332
g45
tp333
Rp334
(I1
(L3L
tp335
g26
I00
S'\xb8w\xaa\xabM)\xbe\xbf \xbe\xdc\xd4\xf1\xc6\xef?\x00\x00\x00\x00\x00\x00\x00\x00'
p336
tp337
bsg51
(F0.02
F2.945243112740431
F-0.035
tp338
sg16
F210000000000.0
sg53
g22
(g26
S'\x9cr\xfawG;\xbe\xbf'
p339
tp340
Rp341
sba(ibikewheelcalc.bikewheelcalc.bicycle_wheel
Spoke
p342
(dp343
g21
g22
(g26
S'\x00\x00\x00\x00\x00\x00\x00\x00'
p344
tp345
Rp346
sg32
F0.0015
sg33
(F0.315
F3.141592653589793
F0.0
tp347
sg35
F0.0
sg36
F371100.6322052943
sg37
g22
(g26
S'\xa9^\x9c\xc2-\x03\xd3?'
p348
tp349
Rp350
sg41
g42
(g43
(I0
tp351
g45
tp352
Rp353
(I1
(L3L
tp354
g26
I00
S'\xb8w\xaa\xabM)\xbe? \xbe\xdc\xd4\xf1\xc6\xef?\x00\x00\x00\x00\x00\x00\x00\x00'
p355
tp356
bsg51
(F0.02
F3.141592653589793
F0.035
tp357
sg16
F210000000000.0
sg53
g22
(g26
S'\x9cr\xfawG;\xbe?'
p358
tp359
Rp360
sba(ibikewheelcalc.bikewheelcalc.bicycle_wheel
Spoke
p361
(dp362
g21
g22
(g26
S'\x00\x00\x00\x00\x00\x00\x00\x00'
p363
tp364
Rp365
sg32
F0.0015
sg33
(F0.315
F3.3379421944391554
F-0.0
tp366
sg35
F0.0
sg36
F371100.6322052943
sg37
g22
(g26
S'\xa9^\x9c\xc2-\x03\xd3?'
p367
tp368
Rp369
sg41
g42
(g43
(I0
tp370
g45
tp371
Rp372
(I1
(L3L
tp373
g26
I00
S'\xb8w\xaa\xabM)\xbe\xbf \xbe\xdc\xd4\xf1\xc6\xef?\x00\x00\x00\x00\x00\x00\x00\x00'
p374
tp375
bsg51
(F0.02
F3.3379421944391554
F-0.035
tp376
sg16
F210000000000.0
sg53
g22
(g26
S'\x9cr\xfawG;\xbe\xbf'
p377
tp378
Rp379
sba(ibikewheelcalc.bikewheelcalc.bicycle_wheel
Spoke
p380
(dp381
g21
g22
(g26
S'\x00\x00\x00\x00\x00\x00\x00\x00'
p382
tp383
Rp384
sg32
F0.0015
sg33
(F0.315
F3.5342917352885173
F0.0
tp385
sg35
F0.0
sg36
F371100.6322052943
sg37
g22
(g26
S'\xa9^\x9c\xc2-\x03\xd3?'
p386
tp387
Rp388
sg41
g42
(g43
(I0
tp389
g45
tp390
Rp391
(I1
(L3L
tp392
g26
I00
S'\xb8w\xaa\xabM)\xbe? \xbe\xdc\xd4\xf1\xc6\xef?\x00\x00\x00\x00\x00\x00\x00\x00'
p393
tp394
bsg51
(F0.02
F3.5342917352885173
F0.035
tp395
sg16
F210000000000.0
sg53
g22
(g26
S'\x9cr\xfawG;\xbe?'
p396
tp397
Rp398
sba(ibikewheelcalc.bikewheelcalc.bicycle_wheel
Spoke
p399
(dp400
g21
g22
(g26
S'\x00\x00\x00\x00\x00\x00\x00\x00'
p401
tp402
Rp403
sg32
F0.0015
sg33
(F0.315
F3.730641276137879
F-0.0
tp404
sg35
F0.0
sg36
F371100.6322052943
sg37
g22
(g26
S'\xa9^\x9c\xc2-\x03\xd3?'
p405
tp406
Rp407
sg41
g42
(g43
(I0
tp408
g45
tp409
Rp410
(I1
(L3L
tp411
g26
I00
S'\xb8w\xaa\xabM)\xbe\xbf \xbe\xdc\xd4\xf1\xc6\xef?\x00\x00\x00\x00\x00\x00\x00\x00'
p412
tp413
bsg51
(F0.02
F3.730641276137879
F-0.035
tp414
sg16
F210000000000.0
sg53
g22
(g26
S'\x9cr\xfawG;\xbe\xbf'
p415
tp416
Rp417
sba(ibikewheelcalc.bikewheelcalc.bicycle_wheel
Spoke
p418
(dp419
g21
g22
(g26
S'\x00\x00\x00\x00\x00\x00\x00\x00'
p420
tp421
Rp422
sg32
F0.0015
sg33
(F0.315
F3.9269908169872414
F0.0
tp423
sg35
F0.0
sg36
F371100.6322052943
sg37
g22
(g26
S'\xa9^\x9c\xc2-\x03\xd3?'
p424
tp425
Rp426
sg41
g42
(g43
(I0
tp427
g45
tp428
Rp429
(I1
(L3L
tp430
g26
I00
S'\xb8w\xaa\xabM)\xbe? \xbe\xdc\xd4\xf1\xc6\xef?\x00\x00\x00\x00\x00\x00\x00\x00'
p431
tp432
bsg51
(F0.02
F3.9269908169872414
F0.035
tp433
sg16
F210000000000.0
sg53
g22
(g26
S'\x9cr\xfawG;\xbe?'
p434
tp435
Rp436
sba(ibikewheelcalc.bikewheelcalc.bicycle_wheel
Spoke
p437
(dp438
g21
g22
(g26
S'\x00\x00\x00\x00\x00\x00\x00\x00'
p439
tp440
Rp441
sg32
F0.0015
sg33
(F0.315
F4.123340357836604
F-0.0
tp442
sg35
F0.0
sg36
F371100.6322052943
sg37
g22
(g26
S'\xa9^\x9c\xc2-\x03\xd3?'
p443
tp444
Rp445
sg41
g42
(g43
(I0
tp446
g45
tp447
Rp448
(I1
(L3L
tp449
g26
I00
S'\xb8w\xaa\xabM)\xbe\xbf \xbe\xdc\xd4\xf1\xc6\xef?\x00\x00\x00\x00\x00\x00\x00\x00'
p450
tp451
bsg51
(F0.02
F4.123340357836604
F-0.035
tp452
sg16
F210000000000.0
sg53
g22
(g26
S'\x9cr\xfawG;\xbe\xbf'
p453
tp454
Rp455
sba(ibikewheelcalc.bikewheelcalc.bicycle_wheel
Spoke
p456
(dp457
g21
g22
(g26
S'\x00\x00\x00\x00\x00\x00\x00\x00'
p458
tp459
Rp460
sg32
F0.0015
sg33
(F0.315
F4.319689898685965
F0.0
tp461
sg35
F0.0
sg36
F371100.6322052943
sg37
g22
(g26
S'\xa9^\x9c\xc2-\x03\xd3?'
p462
tp463
Rp464
sg41
g42
(g43
(I0
tp465
g45
tp466
Rp467
(I1
(L3L
tp468
g26
I00
S'\xb8w\xaa\xabM)\xbe? \xbe\xdc\xd4\xf1\xc6\xef?\x00\x00\x00\x00\x00\x00\x00\x00'
p469
tp470
bsg51
(F0.02
F4.319689898685965
F0.035
tp471
sg16
F210000000000.0
sg53
g22
(g26
S'\x9cr\xfawG;\xbe?'
p472
tp473
Rp474
sba(ibikewheelcalc.bikewheelcalc.bicycle_wheel
Spoke
p475
(dp476
g21
g22
(g26
S'\x00\x00\x00\x00\x00\x00\x00\x00'
p477
tp478
Rp479
sg32
F0.0015
sg33
(F0.315
F4.516039439535327
F-0.0
tp480
sg35
F0.0
sg36
F371100.6322052943
sg37
g22
(g26
S'\xa9^\x9c\xc2-\x03\xd3?'
p481
tp482
Rp483
sg41
g42
(g43
(I0
tp484
g45
tp485
Rp486
(I1
(L3L
tp487
g26
I00
S'\xb8w\xaa\xabM)\xbe\xbf \xbe\xdc\xd4\xf1\xc6\xef?\x00\x00\x00\x00\x00\x00\x00\x00'
p488
tp489
bsg51
(F0.02
F4.516039439535327
F-0.035
tp490
sg16
F210000000000.0
sg53
g22
(g26
S'\x9cr\xfawG;\xbe\xbf'
p491
tp492
Rp493
sba(ibikewheelcalc.bikewheelcalc.bicycle_wheel
Spoke
p494
(dp495
g21
g22
(g26
S'\x00\x00\x00\x00\x00\x00\x00\x00'
p496
tp497
Rp498
sg32
F0.0015
sg33
(F0.315
F4.71238898038469
F0.0
tp499
sg35
F0.0
sg36
F371100.6322052943
sg37
g22
(g26
S'\xa9^\x9c\xc2-\x03\xd3?'
p500
tp501
Rp502
sg41
g42
(g43
(I0
tp503
g45
tp504
Rp505
(I1
(L3L
tp506
g26
I00
S'\xb8w\xaa\xabM)\xbe? \xbe\xdc\xd4\xf1\xc6\xef?\x00\x00\x00\x00\x00\x00\x00\x00'
p507
tp508
bsg51
(F0.02
F4.71238898038469
F0.035
tp509
sg16
F210000000000.0
sg53
g22
(g26
S'\x9cr\xfawG;\xbe?'
p510
tp511
Rp512
sba(ibikewheelcalc.bikewheelcalc.bicycle_wheel
Spoke
p513
(dp514
g21
g22
(g26
S'\x00\x00\x00\x00\x00\x00\x00\x00'
p515
tp516
Rp517
sg32
F0.0015
sg33
(F0.315
F4.908738521234052
F-0.0
tp518
sg35
F0.0
sg36
F371100.6322052943
sg37
g22
(g26
S'\xa9^\x9c\xc2-\x03\xd3?'
p519
tp520
Rp521
sg41
g42
(g43
(I0
tp522
g45
tp523
Rp524
(I1
(L3L
tp525
g26
I00
S'\xb8w\xaa\xabM)\xbe\xbf \xbe\xdc\xd4\xf1\xc6\xef?\x00\x00\x00\x00\x00\x00\x00\x00'
p526
tp527
bsg51
(F0.02
F4.908738521234052
F-0.035
tp528
sg16
F210000000000.0
sg53
g22
(g26
S'\x9cr\xfawG;\xbe\xbf'
p529
tp530
Rp531
sba(ibikewheelcalc.bikewheelcalc.bicycle_wheel
Spoke
p532
(dp533
g21
g22
(g26
S'\x00\x00\x00\x00\x00\x00\x00\x00'
p534
tp535
Rp536
sg32
F0.0015
sg33
(F0.315
F5.105088062083414
F0.0
tp537
sg35
F0.0
sg36
F371100.6322052943
sg37
g22
(g26
S'\xa9^\x9c\xc2-\x03\xd3?'
p538
tp539
Rp540
sg41
g42
(g43
(I0
tp541
g45
tp542
Rp543
(I1
(L3L
tp544
g26
I00
S'\xb8w\xaa\xabM)\xbe? \xbe\xdc\xd4\xf1\xc6\xef?\x00\x00\x00\x00\x00\x00\x00\x00'
p545
tp546
bsg51
(F0.02
F5.105088062083414
F0.035
tp547
sg16
F210000000000.0
sg53
g22
(g26
S'\x9cr\xfawG;\xbe?'
p548
tp549
Rp550
sba(ibikewheelcalc.bikewheelcalc.bicycle_wheel
Spoke
p551
(dp552
g21
g22
(g26
S'\x00\x00\x00\x00\x00\x00\x00\x00'
p553
tp554
Rp555
sg32
F0.0015
sg33
(F0.315
F5.301437602932776
F-0.0
tp556
sg35
F0.0
sg36
F371100.6322052943
sg37
g22
(g26
S'\xa9^\x9c\xc2-\x03\xd3?'
p557
tp558
Rp559
sg41
g42
(g43
(I0
tp560
g45
tp561
Rp562
(I1
(L3L
tp563
g26
I00
S'\xb8w\xaa\xabM)\xbe\xbf \xbe\xdc\xd4\xf1\xc6\xef?\x00\x00\x00\x00\x00\x00\x00\x00'
p564
tp565
bsg51
(F0.02
F5.301437602932776
F-0.035
tp566
sg16
F210000000000.0
sg53
g22
(g26
S'\x9cr\xfawG;\xbe\xbf'
p567
tp568
Rp569
sba(ibikewheelcalc.bikewheelcalc.bicycle_wheel
Spoke
p570
(dp571
g21
g22
(g26
S'\x00\x00\x00\x00\x00\x00\x00\x00'
p572
tp573
Rp574
sg32
F0.0015
sg33
(F0.315
F5.497787143782138
F0.0
tp575
sg35
F0.0
sg36
F371100.6322052943
sg37
g22
(g26
S'\xa9^\x9c\xc2-\x03\xd3?'
p576
tp577
Rp578
sg41
g42
(g43
(I0
tp579
g45
tp580
Rp581
(I1
(L3L
tp582
g26
I00
S'\xb8w\xaa\xabM)\xbe? \xbe\xdc\xd4\xf1\xc6\xef?\x00\x00\x00\x00\x00\x00\x00\x00'
p583
tp584
bsg51
(F0.02
F5.497787143782138
F0.035
tp585
sg16
F210000000000.0
sg53
g22
(g26
S'\x9cr\xfawG;\xbe?'
p586
tp587
Rp588
sba(ibikewheelcalc.bikewheelcalc.bicycle_wheel
Spoke
p589
(dp590
g21
g22
(g26
S'\x00\x00\x00\x00\x00\x00\x00\x00'
p591
tp592
Rp593
sg32
F0.0015
sg33
(F0.315
F5.6941366846315
F-0.0
tp594
sg35
F0.0
sg36
F371100.6322052943
sg37
g22
(g26
S'\xa9^\x9c\xc2-\x03\xd3?'
p595
tp596
Rp597
sg41
g42
(g43
(I0
tp598
g45
tp599
Rp600
(I1
(L3L
tp601
g26
I00
S'\xb8w\xaa\xabM)\xbe\xbf \xbe\xdc\xd4\xf1\xc6\xef?\x00\x00\x00\x00\x00\x00\x00\x00'
p602
tp603
bsg51
(F0.02
F5.6941366846315
F-0.035
tp604
sg16
F210000000000.0
sg53
g22
(g26
S'\x9cr\xfawG;\xbe\xbf'
p605
tp606
Rp607
sba(ibikewheelcalc.bikewheelcalc.bicycle_wheel
Spoke
p608
(dp609
g21
g22
(g26
S'\x00\x00\x00\x00\x00\x00\x00\x00'
p610
tp611
Rp612
sg32
F0.0015
sg33
(F0.315
F5.890486225480862
F0.0
tp613
sg35
F0.0
sg36
F371100.6322052943
sg37
g22
(g26
S'\xa9^\x9c\xc2-\x03\xd3?'
p614
tp615
Rp616
sg41
g42
(g43
(I0
tp617
g45
tp618
Rp619
(I1
(L3L
tp620
g26
I00
S'\xb8w\xaa\xabM)\xbe? \xbe\xdc\xd4\xf1\xc6\xef?\x00\x00\x00\x00\x00\x00\x00\x00'
p621
tp622
bsg51
(F0.02
F5.890486225480862
F0.035
tp623
sg16
F210000000000.0
sg53
g22
(g26
S'\x9cr\xfawG;\xbe?'
p624
tp625
Rp626
sba(ibikewheelcalc.bikewheelcalc.bicycle_wheel
Spoke
p627
(dp628
g21
g22
(g26
S'\x00\x00\x00\x00\x00\x00\x00\x00'
p629
tp630
Rp631
sg32
F0.0015
sg33
(F0.315
F6.086835766330224
F-0.0
tp632
sg35
F0.0
sg36
F371100.6322052943
sg37
g22
(g26
S'\xa9^\x9c\xc2-\x03\xd3?'
p633
tp634
Rp635
sg41
g42
(g43
(I0
tp636
g45
tp637
Rp638
(I1
(L3L
tp639
g26
I00
S'\xb8w\xaa\xabM)\xbe\xbf \xbe\xdc\xd4\xf1\xc6\xef?\x00\x00\x00\x00\x00\x00\x00\x00'
p640
tp641
bsg51
(F0.02
F6.086835766330224
F-0.035
tp642
sg16
F210000000000.0
sg53
g22
(g26
S'\x9cr\xfawG;\xbe\xbf'
p643
tp644
Rp645
sbasS'hub'
p646
(ibikewheelcalc.bikewheelcalc.bicycle_wheel
Hub
p647
(dp648
S'radius1'
p649
F0.02
sS'diam1'
p650
F0.04
sS'diam2'
p651
F0.04
sS'radius2'
p652
F0.02
sS'width2'
p653
F0.035
sS'width1'
p654
F0.035
sbsb.