(ibikewheelcalc.bikewheelcalc.bicycle_wheel
BicycleWheel
p0
(dp1
S'rim'
p2
(ibikewheelcalc.bikewheelcalc.bicycle_wheel
Rim
p3
(dp4
S'shear_mod'
p5
F26000000000.0
sS'sec_params'
p6
(dp7
S'h'
p8
F0.005
sS'w'
p9
F0.08
sS'closed'
p10
I01
sS't'
p11
F0.001
ssS'area'
p12
F0.00017
sS'I33'
p13
F1.0366666666666666e-09
sS'I22'
p14
F1.0137416666666666e-07
sS'I11'
p15
F3.764705882352942e-09
sS'Iw'
p16
F0.0
sS'sec_type'
p17
S'box'
p18
sS'radius'
p19
F0.3
sS'young_mod'
p20
F69000000000.0
sbsS'spokes'
p21
(lp22
(ibikewheelcalc.bikewheelcalc.bicycle_wheel
Spoke
p23
(dp24
S'beta'
p25
cnumpy.core.multiarray
scalar
p26
(cnumpy
dtype
p27
(S'f8'
p28
I0
I1
tp29
Rp30
(I3
S'<'
p31
NNNI-1
I-1
I0
tp32
bS'\x00\x00\x00\x00\x00\x00\x00\x00'
p33
tp34
Rp35
sS'diameter'
p36
F0.002
sS'rim_pt'
p37
(F0.3
F0.0
F0.0
tp38
sS'tension'
p39
g26
(g30
S'\xe4\x9a\xe0N\x8b\x11\x95@'
p40
tp41
Rp42
sS'EA'
p43
F628318.5307179586
sS'length'
p44
g26
(g30
S'\xd3!"\x0c.\xac\xd1?'
p45
tp46
Rp47
sS'n'
p48
cnumpy.core.multiarray
_reconstruct
p49
(cnumpy
ndarray
p50
(I0
tp51
S'b'
p52
tp53
Rp54
(I1
(L3L
tp55
g30
I00
S'\xc5\x1f_\xc4Y-\xb7?\xae\xcb\x02n[\xde\xef?\x00\x00\x00\x00\x00\x00\x00\x00'
p56
tp57
bsS'hub_pt'
p58
(F0.025
F0.0
F0.025
tp59
sg20
F200000000000.0
sS'alpha'
p60
g26
(g30
S'o\x14\x96\x82|5\xb7?'
p61
tp62
Rp63
sba(ibikewheelcalc.bikewheelcalc.bicycle_wheel
Spoke
p64
(dp65
g25
g26
(g30
S'\x00\x00\x00\x00\x00\x00\x00\x00'
p66
tp67
Rp68
sg36
F0.002
sg37
(F0.3
F0.17453292519943295
F-0.0
tp69
sg39
g26
(g30
S'\xe4\x9a\xe0N\x8b\x11\x95@'
p70
tp71
Rp72
sg43
F628318.5307179586
sg44
g26
(g30
S'\xd3!"\x0c.\xac\xd1?'
p73
tp74
Rp75
sg48
g49
(g50
(I0
tp76
g52
tp77
Rp78
(I1
(L3L
tp79
g30
I00
S'\xc5\x1f_\xc4Y-\xb7\xbf\xae\xcb\x02n[\xde\xef?\x00\x00\x00\x00\x00\x00\x00\x00'
p80
tp81
bsg58
(F0.025
F0.17453292519943295
F-0.025
tp82
sg20
F200000000000.0
sg60
g26
(g30
S'o\x14\x96\x82|5\xb7\xbf'
p83
tp84
Rp85
sba(ibikewheelcalc.bikewheelcalc.bicycle_wheel
Spoke
p86
(dp87
g25
g26
(g30
S'\x00\x00\x00\x00\x00\x00\x00\x00'
p88
tp89
Rp90
sg36
F0.002
sg37
(F0.3
F0.3490658503988659
F0.0
tp91
sg39
g42
sg43
F628318.5307179586
sg44
g26
(g30
S'\xd3!"\x0c.\xac\xd1?'
p92
tp93
Rp94
sg48
g49
(g50
(I0
tp95
g52
tp96
Rp97
(I1
(L3L
tp98
g30
I00
S'\xc5\x1f_\xc4Y-\xb7?\xae\xcb\x02n[\xde\xef?\x00\x00\x00\x00\x00\x00\x00\x00'
p99
tp100
bsg58
(F0.025
F0.3490658503988659
F0.025
tp101
sg20
F200000000000.0
sg60
g26
(g30
S'o\x14\x96\x82|5\xb7?'
p102
tp103
Rp104
sba(ibikewheelcalc.bikewheelcalc.bicycle_wheel
Spoke
p105
(dp106
g25
g26
(g30
S'\x00\x00\x00\x00\x00\x00\x00\x00'
p107
tp108
Rp109
sg36
F0.002
sg37
(F0.3
F0.5235987755982988
F-0.0
tp110
sg39
g72
sg43
F628318.5307179586
sg44
g26
(g30
S'\xd3!"\x0c.\xac\xd1?'
p111
tp112
Rp113
sg48
g49
(g50
(I0
tp114
g52
tp115
Rp116
(I1
(L3L
tp117
g30
I00
S'\xc5\x1f_\xc4Y-\xb7\xbf\xae\xcb\x02n[\xde\xef?\x00\x00\x00\x00\x00\x00\x00\x00'
p118
tp119
bsg58
(F0.025
F0.5235987755982988
F-0.025
tp120
sg20
F200000000000.0
sg60
g26
(g30
S'o\x14\x96\x82|5\xb7\xbf'
p121
tp122
Rp123
sba(ibikewheelcalc.bikewheelcalc.bicycle_wheel
Spoke
p124
(dp125
g25
g26
(g30
S'\x00\x00\x00\x00\x00\x00\x00\x00'
p126
tp127
Rp128
sg36
F0.002
sg37
(F0.3
F0.6981317007977318
F0.0
tp129
sg39
g42
sg43
F628318.5307179586
sg44
g26
(g30
S'\xd3!"\x0c.\xac\xd1?'
p130
tp131
Rp132
sg48
g49
(g50
(I0
tp133
g52
tp134
Rp135
(I1
(L3L
tp136
g30
I00
S'\xc5\x1f_\xc4Y-\xb7?\xae\xcb\x02n[\xde\xef?\x00\x00\x00\x00\x00\x00\x00\x00'
p137
tp138
bsg58
(F0.025
F0.6981317007977318
F0.025
tp139
sg20
F200000000000.0
sg60
g26
(g30
S'o\x14\x96\x82|5\xb7?'
p140
tp141
Rp142
sba(ibikewheelcalc.bikewheelcalc.bicycle_wheel
Spoke
p143
(dp144
g25
g26
(g30
S'\x00\x00\x00\x00\x00\x00\x00\x00'
p145
tp146
Rp147
sg36
F0.002
sg37
(F0.3
F0.8726646259971648
F-0.0
tp148
sg39
g72
sg43
F628318.5307179586
sg44
g26
(g30
S'\xd3!"\x0c.\xac\xd1?'
p149
tp150
Rp151
sg48
g49
(g50
(I0
tp152
g52
tp153
Rp154
(I1
(L3L
tp155
g30
I00
S'\xc5\x1f_\xc4Y-\xb7\xbf\xae\xcb\x02n[\xde\xef?\x00\x00\x00\x00\x00\x00\x00\x00'
p156
tp157
bsg58
(F0.025
F0.8726646259971648
F-0.025
tp158
sg20
F200000000000.0
sg60
g26
(g30
S'o\x14\x96\x82|5\xb7\xbf'
p159
tp160
Rp161
sba(ibikewheelcalc.bikewheelcalc.bicycle_wheel
Spoke
p162
(dp163
g25
g26
(g30
S'\x00\x00\x00\x00\x00\x00\x00\x00'
p164
tp165
Rp166
sg36
F0.002
sg37
(F0.3
F1.0471975511965976
F0.0
tp167
sg39
g42
sg43
F628318.5307179586
sg44
g26
(g30
S'\xd3!"\x0c.\xac\xd1?'
p168
tp169
Rp170
sg48
g49
(g50
(I0
tp171
g52
tp172
Rp173
(I1
(L3L
tp174
g30
I00
S'\xc5\x1f_\xc4Y-\xb7?\xae\xcb\x02n[\xde\xef?\x00\x00\x00\x00\x00\x00\x00\x00'
p175
tp176
bsg58
(F0.025
F1.0471975511965976
F0.025
tp177
sg20
F200000000000.0
sg60
g26
(g30
S'o\x14\x96\x82|5\xb7?'
p178
tp179
Rp180
sba(ibikewheelcalc.bikewheelcalc.bicycle_wheel
Spoke
p181
(dp182
g25
g26
(g30
S'\x00\x00\x00\x00\x00\x00\x00\x00'
p183
tp184
Rp185
sg36
F0.002
sg37
(F0.3
F1.2217304763960306
F-0.0
tp186
sg39
g72
sg43
F628318.5307179586
sg44
g26
(g30
S'\xd3!"\x0c.\xac\xd1?'
p187
tp188
Rp189
sg48
g49
(g50
(I0
tp190
g52
tp191
Rp192
(I1
(L3L
tp193
g30
I00
S'\xc5\x1f_\xc4Y-\xb7\xbf\xae\xcb\x02n[\xde\xef?\x00\x00\x00\x00\x00\x00\x00\x00'
p194
tp195
bsg58
(F0.025
F1.2217304763960306
F-0.025
tp196
sg20
F200000000000.0
sg60
g26
(g30
S'o\x14\x96\x82|5\xb7\xbf'
p197
tp198
Rp199
sba(ibikewheelcalc.bikewheelcalc.bicycle_wheel
Spoke
p200
(dp201
g25
g26
(g30
S'\x00\x00\x00\x00\x00\x00\x00\x00'
p202
tp203
Rp204
sg36
F0.002
sg37
(F0.3
F1.3962634015954636
F0.0
tp205
sg39
g42
sg43
F628318.5307179586
sg44
g26
(g30
S'\xd3!"\x0c.\xac\xd1?'
p206
tp207
Rp208
sg48
g49
(g50
(I0
tp209
g52
tp210
Rp211
(I1
(L3L
tp212
g30
I00
S'\xc5\x1f_\xc4Y-\xb7?\xae\xcb\x02n[\xde\xef?\x00\x00\x00\x00\x00\x00\x00\x00'
p213
tp214
bsg58
(F0.025
F1.3962634015954636
F0.025
tp215
sg20
F200000000000.0
sg60
g26
(g30
S'o\x14\x96\x82|5\xb7?'
p216
tp217
Rp218
sba(ibikewheelcalc.bikewheelcalc.bicycle_wheel
Spoke
p219
(dp220
g25
g26
(g30
S'\x00\x00\x00\x00\x00\x00\x00\x00'
p221
tp222
Rp223
sg36
F0.002
sg37
(F0.3
F1.5707963267948966
F-0.0
tp224
sg39
g72
sg43
F628318.5307179586
sg44
g26
(g30
S'\xd3!"\x0c.\xac\xd1?'
p225
tp226
Rp227
sg48
g49
(g50
(I0
tp228
g52
tp229
Rp230
(I1
(L3L
tp231
g30
I00
S'\xc5\x1f_\xc4Y-\xb7\xbf\xae\xcb\x02n[\xde\xef?\x00\x00\x00\x00\x00\x00\x00\x00'
p232
tp233
bsg58
(F0.025
F1.5707963267948966
F-0.025
tp234
sg20
F200000000000.0
sg60
g26
(g30
S'o\x14\x96\x82|5\xb7\xbf'
p235
tp236
Rp237
sba(ibikewheelcalc.bikewheelcalc.bicycle_wheel
Spoke
p238
(dp239
g25
g26
(g30
S'\x00\x00\x00\x00\x00\x00\x00\x00'
p240
tp241
Rp242
sg36
F0.002
sg37
(F0.3
F1.7453292519943295
F0.0
tp243
sg39
g42
sg43
F628318.5307179586
sg44
g26
(g30
S'\xd3!"\x0c.\xac\xd1?'
p244
tp245
Rp246
sg48
g49
(g50
(I0
tp247
g52
tp248
Rp249
(I1
(L3L
tp250
g30
I00
S'\xc5\x1f_\xc4Y-\xb7?\xae\xcb\x02n[\xde\xef?\x00\x00\x00\x00\x00\x00\x00\x00'
p251
tp252
bsg58
(F0.025
F1.7453292519943295
F0.025
tp253
sg20
F200000000000.0
sg60
g26
(g30
S'o\x14\x96\x82|5\xb7?'
p254
tp255
Rp256
sba(ibikewheelcalc.bikewheelcalc.bicycle_wheel
Spoke
p257
(dp258
g25
g26
(g30
S'\x00\x00\x00\x00\x00\x00\x00\x00'
p259
tp260
Rp261
sg36
F0.002
sg37
(F0.3
F1.9198621771937625
F-0.0
tp262
sg39
g72
sg43
F628318.5307179586
sg44
g26
(g30
S'\xd3!"\x0c.\xac\xd1?'
p263
tp264
Rp265
sg48
g49
(g50
(I0
tp266
g52
tp267
Rp268
(I1
(L3L
tp269
g30
I00
S'\xc5\x1f_\xc4Y-\xb7\xbf\xae\xcb\x02n[\xde\xef?\x00\x00\x00\x00\x00\x00\x00\x00'
p270
tp271
bsg58
(F0.025
F1.9198621771937625
F-0.025
tp272
sg20
F200000000000.0
sg60
g26
(g30
S'o\x14\x96\x82|5\xb7\xbf'
p273
tp274
Rp275
sba(ibikewheelcalc.bikewheelcalc.bicycle_wheel
Spoke
p276
(dp277
g25
g26
(g30
S'\x00\x00\x00\x00\x00\x00\x00\x00'
p278
tp279
Rp280
sg36
F0.002
sg37
(F0.3
F2.0943951023931953
F0.0
tp281
sg39
g42
sg43
F628318.5307179586
sg44
g26
(g30
S'\xd3!"\x0c.\xac\xd1?'
p282
tp283
Rp284
sg48
g49
(g50
(I0
tp285
g52
tp286
Rp287
(I1
(L3L
tp288
g30
I00
S'\xc5\x1f_\xc4Y-\xb7?\xae\xcb\x02n[\xde\xef?\x00\x00\x00\x00\x00\x00\x00\x00'
p289
tp290
bsg58
(F0.025
F2.0943951023931953
F0.025
tp291
sg20
F200000000000.0
sg60
g26
(g30
S'o\x14\x96\x82|5\xb7?'
p292
tp293
Rp294
sba(ibikewheelcalc.bikewheelcalc.bicycle_wheel
Spoke
p295
(dp296
g25
g26
(g30
S'\x00\x00\x00\x00\x00\x00\x00\x00'
p297
tp298
Rp299
sg36
F0.002
sg37
(F0.3
F2.2689280275926285
F-0.0
tp300
sg39
g72
sg43
F628318.5307179586
sg44
g26
(g30
S'\xd3!"\x0c.\xac\xd1?'
p301
tp302
Rp303
sg48
g49
(g50
(I0
tp304
g52
tp305
Rp306
(I1
(L3L
tp307
g30
I00
S'\xc5\x1f_\xc4Y-\xb7\xbf\xae\xcb\x02n[\xde\xef?\x00\x00\x00\x00\x00\x00\x00\x00'
p308
tp309
bsg58
(F0.025
F2.2689280275926285
F-0.025
tp310
sg20
F200000000000.0
sg60
g26
(g30
S'o\x14\x96\x82|5\xb7\xbf'
p311
tp312
Rp313
sba(ibikewheelcalc.bikewheelcalc.bicycle_wheel
Spoke
p314
(dp315
g25
g26
(g30
S'\x00\x00\x00\x00\x00\x00\x00\x00'
p316
tp317
Rp318
sg36
F0.002
sg37
(F0.3
F2.443460952792061
F0.0
tp319
sg39
g42
sg43
F628318.5307179586
sg44
g26
(g30
S'\xd3!"\x0c.\xac\xd1?'
p320
tp321
Rp322
sg48
g49
(g50
(I0
tp323
g52
tp324
Rp325
(I1
(L3L
tp326
g30
I00
S'\xc5\x1f_\xc4Y-\xb7?\xae\xcb\x02n[\xde\xef?\x00\x00\x00\x00\x00\x00\x00\x00'
p327
tp328
bsg58
(F0.025
F2.443460952792061
F0.025
tp329
sg20
F200000000000.0
sg60
g26
(g30
S'o\x14\x96\x82|5\xb7?'
p330
tp331
Rp332
sba(ibikewheelcalc.bikewheelcalc.bicycle_wheel
Spoke
p333
(dp334
g25
g26
(g30
S'\x00\x00\x00\x00\x00\x00\x00\x00'
p335
tp336
Rp337
sg36
F0.002
sg37
(F0.3
F2.6179938779914944
F-0.0
tp338
sg39
g72
sg43
F628318.5307179586
sg44
g26
(g30
S'\xd3!"\x0c.\xac\xd1?'
p339
tp340
Rp341
sg48
g49
(g50
(I0
tp342
g52
tp343
Rp344
(I1
(L3L
tp345
g30
I00
S'\xc5\x1f_\xc4Y-\xb7\xbf\xae\xcb\x02n[\xde\xef?\x00\x00\x00\x00\x00\x00\x00\x00'
p346
tp347
bsg58
(F0.025
F2.6179938779914944
F-0.025
tp348
sg20
F200000000000.0
sg60
g26
(g30
S'o\x14\x96\x82|5\xb7\xbf'
p349
tp350
Rp351
sba(ibikewheelcalc.bikewheelcalc.bicycle_wheel
Spoke
p352
(dp353
g25
g26
(g30
S'\x00\x00\x00\x00\x00\x00\x00\x00'
p354
tp355
Rp356
sg36
F0.002
sg37
(F0.3
F2.792526803190927
F0.0
tp357
sg39
g42
sg43
F628318.5307179586
sg44
g26
(g30
S'\xd3!"\x0c.\xac\xd1?'
p358
tp359
Rp360
sg48
g49
(g50
(I0
tp361
g52
tp362
Rp363
(I1
(L3L
tp364
g30
I00
S'\xc5\x1f_\xc4Y-\xb7?\xae\xcb\x02n[\xde\xef?\x00\x00\x00\x00\x00\x00\x00\x00'
p365
tp366
bsg58
(F0.025
F2.792526803190927
F0.025
tp367
sg20
F200000000000.0
sg60
g26
(g30
S'o\x14\x96\x82|5\xb7?'
p368
tp369
Rp370
sba(ibikewheelcalc.bikewheelcalc.bicycle_wheel
Spoke
p371
(dp372
g25
g26
(g30
S'\x00\x00\x00\x00\x00\x00\x00\x00'
p373
tp374
Rp375
sg36
F0.002
sg37
(F0.3
F2.96705972839036
F-0.0
tp376
sg39
g72
sg43
F628318.5307179586
sg44
g26
(g30
S'\xd3!"\x0c.\xac\xd1?'
p377
tp378
Rp379
sg48
g49
(g50
(I0
tp380
g52
tp381
Rp382
(I1
(L3L
tp383
g30
I00
S'\xc5\x1f_\xc4Y-\xb7\xbf\xae\xcb\x02n[\xde\xef?\x00\x00\x00\x00\x00\x00\x00\x00'
p384
tp385
bsg58
(F0.025
F2.96705972839036
F-0.025
tp386
sg20
F200000000000.0
sg60
g26
(g30
S'o\x14\x96\x82|5\xb7\xbf'
p387
tp388
Rp389
sba(ibikewheelcalc.bikewheelcalc.bicycle_wheel
Spoke
p390
(dp391
g25
g26
(g30
S'\x00\x00\x00\x00\x00\x00\x00\x00'
p392
tp393
Rp394
sg36
F0.002
sg37
(F0.3
F3.141592653589793
F0.0
tp395
sg39
g42
sg43
F628318.5307179586
sg44
g26
(g30
S'\xd3!"\x0c.\xac\xd1?'
p396
tp397
Rp398
sg48
g49
(g50
(I0
tp399
g52
tp400
Rp401
(I1
(L3L
tp402
g30
I00
S'\xc5\x1f_\xc4Y-\xb7?\xae\xcb\x02n[\xde\xef?\x00\x00\x00\x00\x00\x00\x00\x00'
p403
tp404
bsg58
(F0.025
F3.141592653589793
F0.025
tp405
sg20
F200000000000.0
sg60
g26
(g30
S'o\x14\x96\x82|5\xb7?'
p406
tp407
Rp408
sba(ibikewheelcalc.bikewheelcalc.bicycle_wheel
Spoke
p409
(dp410
g25
g26
(g30
S'\x00\x00\x00\x00\x00\x00\x00\x00'
p411
tp412
Rp413
sg36
F0.002
sg37
(F0.3
F3.316125578789226
F-0.0
tp414
sg39
g72
sg43
F628318.5307179586
sg44
g26
(g30
S'\xd3!"\x0c.\xac\xd1?'
p415
tp416
Rp417
sg48
g49
(g50
(I0
tp418
g52
tp419
Rp420
(I1
(L3L
tp421
g30
I00
S'\xc5\x1f_\xc4Y-\xb7\xbf\xae\xcb\x02n[\xde\xef?\x00\x00\x00\x00\x00\x00\x00\x00'
p422
tp423
bsg58
(F0.025
F3.316125578789226
F-0.025
tp424
sg20
F200000000000.0
sg60
g26
(g30
S'o\x14\x96\x82|5\xb7\xbf'
p425
tp426
Rp427
sba(ibikewheelcalc.bikewheelcalc.bicycle_wheel
Spoke
p428
(dp429
g25
g26
(g30
S'\x00\x00\x00\x00\x00\x00\x00\x00'
p430
tp431
Rp432
sg36
F0.002
sg37
(F0.3
F3.490658503988659
F0.0
tp433
sg39
g42
sg43
F628318.5307179586
sg44
g26
(g30
S'\xd3!"\x0c.\xac\xd1?'
p434
tp435
Rp436
sg48
g49
(g50
(I0
tp437
g52
tp438
Rp439
(I1
(L3L
tp440
g30
I00
S'\xc5\x1f_\xc4Y-\xb7?\xae\xcb\x02n[\xde\xef?\x00\x00\x00\x00\x00\x00\x00\x00'
p441
tp442
bsg58
(F0.025
F3.490658503988659
F0.025
tp443
sg20
F200000000000.0
sg60
g26
(g30
S'o\x14\x96\x82|5\xb7?'
p444
tp445
Rp446
sba(ibikewheelcalc.bikewheelcalc.bicycle_wheel
Spoke
p447
(dp448
g25
g26
(g30
S'\x00\x00\x00\x00\x00\x00\x00\x00'
p449
tp450
Rp451
sg36
F0.002
sg37
(F0.3
F3.665191429188092
F-0.0
tp452
sg39
g72
sg43
F628318.5307179586
sg44
g26
(g30
S'\xd3!"\x0c.\xac\xd1?'
p453
tp454
Rp455
sg48
g49
(g50
(I0
tp456
g52
tp457
Rp458
(I1
(L3L
tp459
g30
I00
S'\xc5\x1f_\xc4Y-\xb7\xbf\xae\xcb\x02n[\xde\xef?\x00\x00\x00\x00\x00\x00\x00\x00'
p460
tp461
bsg58
(F0.025
F3.665191429188092
F-0.025
tp462
sg20
F200000000000.0
sg60
g26
(g30
S'o\x14\x96\x82|5\xb7\xbf'
p463
tp464
Rp465
sba(ibikewheelcalc.bikewheelcalc.bicycle_wheel
Spoke
p466
(dp467
g25
g26
(g30
S'\x00\x00\x00\x00\x00\x00\x00\x00'
p468
tp469
Rp470
sg36
F0.002
sg37
(F0.3
F3.839724354387525
F0.0
tp471
sg39
g42
sg43
F628318.5307179586
sg44
g26
(g30
S'\xd3!"\x0c.\xac\xd1?'
p472
tp473
Rp474
sg48
g49
(g50
(I0
tp475
g52
tp476
Rp477
(I1
(L3L
tp478
g30
I00
S'\xc5\x1f_\xc4Y-\xb7?\xae\xcb\x02n[\xde\xef?\x00\x00\x00\x00\x00\x00\x00\x00'
p479
tp480
bsg58
(F0.025
F3.839724354387525
F0.025
tp481
sg20
F200000000000.0
sg60
g26
(g30
S'o\x14\x96\x82|5\xb7?'
p482
tp483
Rp484
sba(ibikewheelcalc.bikewheelcalc.bicycle_wheel
Spoke
p485
(dp486
g25
g26
(g30
S'\x00\x00\x00\x00\x00\x00\x00\x00'
p487
tp488
Rp489
sg36
F0.002
sg37
(F0.3
F4.014257279586958
F-0.0
tp490
sg39
g72
sg43
F628318.5307179586
sg44
g26
(g30
S'\xd3!"\x0c.\xac\xd1?'
p491
tp492
Rp493
sg48
g49
(g50
(I0
tp494
g52
tp495
Rp496
(I1
(L3L
tp497
g30
I00
S'\xc5\x1f_\xc4Y-\xb7\xbf\xae\xcb\x02n[\xde\xef?\x00\x00\x00\x00\x00\x00\x00\x00'
p498
tp499
bsg58
(F0.025
F4.014257279586958
F-0.025
tp500
sg20
F200000000000.0
sg60
g26
(g30
S'o\x14\x96\x82|5\xb7\xbf'
p501
tp502
Rp503
sba(ibikewheelcalc.bikewheelcalc.bicycle_wheel
Spoke
p504
(dp505
g25
g26
(g30
S'\x00\x00\x00\x00\x00\x00\x00\x00'
p506
tp507
Rp508
sg36
F0.002
sg37
(F0.3
F4.1887902047863905
F0.0
tp509
sg39
g42
sg43
F628318.5307179586
sg44
g26
(g30
S'\xd3!"\x0c.\xac\xd1?'
p510
tp511
Rp512
sg48
g49
(g50
(I0
tp513
g52
tp514
Rp515
(I1
(L3L
tp516
g30
I00
S'\xc5\x1f_\xc4Y-\xb7?\xae\xcb\x02n[\xde\xef?\x00\x00\x00\x00\x00\x00\x00\x00'
p517
tp518
bsg58
(F0.025
F4.1887902047863905
F0.025
tp519
sg20
F200000000000.0
sg60
g26
(g30
S'o\x14\x96\x82|5\xb7?'
p520
tp521
Rp522
sba(ibikewheelcalc.bikewheelcalc.bicycle_wheel
Spoke
p523
(dp524
g25
g26
(g30
S'\x00\x00\x00\x00\x00\x00\x00\x00'
p525
tp526
Rp527
sg36
F0.002
sg37
(F0.3
F4.363323129985823
F-0.0
tp528
sg39
g72
sg43
F628318.5307179586
sg44
g26
(g30
S'\xd3!"\x0c.\xac\xd1?'
p529
tp530
Rp531
sg48
g49
(g50
(I0
tp532
g52
tp533
Rp534
(I1
(L3L
tp535
g30
I00
S'\xc5\x1f_\xc4Y-\xb7\xbf\xae\xcb\x02n[\xde\xef?\x00\x00\x00\x00\x00\x00\x00\x00'
p536
tp537
bsg58
(F0.025
F4.363323129985823
F-0.025
tp538
sg20
F200000000000.0
sg60
g26
(g30
S'o\x14\x96\x82|5\xb7\xbf'
p539
tp540
Rp541
sba(ibikewheelcalc.bikewheelcalc.bicycle_wheel
Spoke
p542
(dp543
g25
g26
(g30
S'\x00\x00\x00\x00\x00\x00\x00\x00'
p544
tp545
Rp546
sg36
F0.002
sg37
(F0.3
F4.537856055185257
F0.0
tp547
sg39
g42
sg43
F628318.5307179586
sg44
g26
(g30
S'\xd3!"\x0c.\xac\xd1?'
p548
tp549
Rp550
sg48
g49
(g50
(I0
tp551
g52
tp552
Rp553
(I1
(L3L
tp554
g30
I00
S'\xc5\x1f_\xc4Y-\xb7?\xae\xcb\x02n[\xde\xef?\x00\x00\x00\x00\x00\x00\x00\x00'
p555
tp556
bsg58
(F0.025
F4.537856055185257
F0.025
tp557
sg20
F200000000000.0
sg60
g26
(g30
S'o\x14\x96\x82|5\xb7?'
p558
tp559
Rp560
sba(ibikewheelcalc.bikewheelcalc.bicycle_wheel
Spoke
p561
(dp562
g25
g26
(g30
S'\x00\x00\x00\x00\x00\x00\x00\x00'
p563
tp564
Rp565
sg36
F0.002
sg37
(F0.3
F4.71238898038469
F-0.0
tp566
sg39
g72
sg43
F628318.5307179586
sg44
g26
(g30
S'\xd3!"\x0c.\xac\xd1?'
p567
tp568
Rp569
sg48
g49
(g50
(I0
tp570
g52
tp571
Rp572
(I1
(L3L
tp573
g30
I00
S'\xc5\x1f_\xc4Y-\xb7\xbf\xae\xcb\x02n[\xde\xef?\x00\x00\x00\x00\x00\x00\x00\x00'
p574
tp575
bsg58
(F0.025
F4.71238898038469
F-0.025
tp576
sg20
F200000000000.0
sg60
g26
(g30
S'o\x14\x96\x82|5\xb7\xbf'
p577
tp578
Rp579
sba(ibikewheelcalc.bikewheelcalc.bicycle_wheel
Spoke
p580
(dp581
g25
g26
(g30
S'\x00\x00\x00\x00\x00\x00\x00\x00'
p582
tp583
Rp584
sg36
F0.002
sg37
(F0.3
F4.886921905584122
F0.0
tp585
sg39
g42
sg43
F628318.5307179586
sg44
g26
(g30
S'\xd3!"\x0c.\xac\xd1?'
p586
tp587
Rp588
sg48
g49
(g50
(I0
tp589
g52
tp590
Rp591
(I1
(L3L
tp592
g30
I00
S'\xc5\x1f_\xc4Y-\xb7?\xae\xcb\x02n[\xde\xef?\x00\x00\x00\x00\x00\x00\x00\x00'
p593
tp594
bsg58
(F0.025
F4.886921905584122
F0.025
tp595
sg20
F200000000000.0
sg60
g26
(g30
S'o\x14\x96\x82|5\xb7?'
p596
tp597
Rp598
sba(ibikewheelcalc.bikewheelcalc.bicycle_wheel
Spoke
p599
(dp600
g25
g26
(g30
S'\x00\x00\x00\x00\x00\x00\x00\x00'
p601
tp602
Rp603
sg36
F0.002
sg37
(F0.3
F5.061454830783555
F-0.0
tp604
sg39
g72
sg43
F628318.5307179586
sg44
g26
(g30
S'\xd3!"\x0c.\xac\xd1?'
p605
tp606
Rp607
sg48
g49
(g50
(I0
tp608
g52
tp609
Rp610
(I1
(L3L
tp611
g30
I00
S'\xc5\x1f_\xc4Y-\xb7\xbf\xae\xcb\x02n[\xde\xef?\x00\x00\x00\x00\x00\x00\x00\x00'
p612
tp613
bsg58
(F0.025
F5.061454830783555
F-0.025
tp614
sg20
F200000000000.0
sg60
g26
(g30
S'o\x14\x96\x82|5\xb7\xbf'
p615
tp616
Rp617
sba(ibikewheelcalc.bikewheelcalc.bicycle_wheel
Spoke
p618
(dp619
g25
g26
(g30
S'\x00\x00\x00\x00\x00\x00\x00\x00'
p620
tp621
Rp622
sg36
F0.002
sg37
(F0.3
F5.235987755982989
F0.0
tp623
sg39
g42
sg43
F628318.5307179586
sg44
g26
(g30
S'\xd3!"\x0c.\xac\xd1?'
p624
tp625
Rp626
sg48
g49
(g50
(I0
tp627
g52
tp628
Rp629
(I1
(L3L
tp630
g30
I00
S'\xc5\x1f_\xc4Y-\xb7?\xae\xcb\x02n[\xde\xef?\x00\x00\x00\x00\x00\x00\x00\x00'
p631
tp632
bsg58
(F0.025
F5.235987755982989
F0.025
tp633
sg20
F200000000000.0
sg60
g26
(g30
S'o\x14\x96\x82|5\xb7?'
p634
tp635
Rp636
sba(ibikewheelcalc.bikewheelcalc.bicycle_wheel
Spoke
p637
(dp638
g25
g26
(g30
S'\x00\x00\x00\x00\x00\x00\x00\x00'
p639
tp640
Rp641
sg36
F0.002
sg37
(F0.3
F5.410520681182422
F-0.0
tp642
sg39
g72
sg43
F628318.5307179586
sg44
g26
(g30
S'\xd3!"\x0c.\xac\xd1?'
p643
tp644
Rp645
sg48
g49
(g50
(I0
tp646
g52
tp647
Rp648
(I1
(L3L
tp649
g30
I00
S'\xc5\x1f_\xc4Y-\xb7\xbf\xae\xcb\x02n[\xde\xef?\x00\x00\x00\x00\x00\x00\x00\x00'
p650
tp651
bsg58
(F0.025
F5.410520681182422
F-0.025
tp652
sg20
F200000000000.0
sg60
g26
(g30
S'o\x14\x96\x82|5\xb7\xbf'
p653
tp654
Rp655
sba(ibikewheelcalc.bikewheelcalc.bicycle_wheel
Spoke
p656
(dp657
g25
g26
(g30
S'\x00\x00\x00\x00\x00\x00\x00\x00'
p658
tp659
Rp660
sg36
F0.002
sg37
(F0.3
F5.585053606381854
F0.0
tp661
sg39
g42
sg43
F628318.5307179586
sg44
g26
(g30
S'\xd3!"\x0c.\xac\xd1?'
p662
tp663
Rp664
sg48
g49
(g50
(I0
tp665
g52
tp666
Rp667
(I1
(L3L
tp668
g30
I00
S'\xc5\x1f_\xc4Y-\xb7?\xae\xcb\x02n[\xde\xef?\x00\x00\x00\x00\x00\x00\x00\x00'
p669
tp670
bsg58
(F0.025
F5.585053606381854
F0.025
tp671
sg20
F200000000000.0
sg60
g26
(g30
S'o\x14\x96\x82|5\xb7?'
p672
tp673
Rp674
sba(ibikewheelcalc.bikewheelcalc.bicycle_wheel
Spoke
p675
(dp676
g25
g26
(g30
S'\x00\x00\x00\x00\x00\x00\x00\x00'
p677
tp678
Rp679
sg36
F0.002
sg37
(F0.3
F5.759586531581287
F-0.0
tp680
sg39
g72
sg43
F628318.5307179586
sg44
g26
(g30
S'\xd3!"\x0c.\xac\xd1?'
p681
tp682
Rp683
sg48
g49
(g50
(I0
tp684
g52
tp685
Rp686
(I1
(L3L
tp687
g30
I00
S'\xc5\x1f_\xc4Y-\xb7\xbf\xae\xcb\x02n[\xde\xef?\x00\x00\x00\x00\x00\x00\x00\x00'
p688
tp689
bsg58
(F0.025
F5.759586531581287
F-0.025
tp690
sg20
F200000000000.0
sg60
g26
(g30
S'o\x14\x96\x82|5\xb7\xbf'
p691
tp692
Rp693
sba(ibikewheelcalc.bikewheelcalc.bicycle_wheel
Spoke
p694
(dp695
g25
g26
(g30
S'\x00\x00\x00\x00\x00\x00\x00\x00'
p696
tp697
Rp698
sg36
F0.002
sg37
(F0.3
F5.93411945678072
F0.0
tp699
sg39
g42
sg43
F628318.5307179586
sg44
g26
(g30
S'\xd3!"\x0c.\xac\xd1?'
p700
tp701
Rp702
sg48
g49
(g50
(I0
tp703
g52
tp704
Rp705
(I1
(L3L
tp706
g30
I00
S'\xc5\x1f_\xc4Y-\xb7?\xae\xcb\x02n[\xde\xef?\x00\x00\x00\x00\x00\x00\x00\x00'
p707
tp708
bsg58
(F0.025
F5.93411945678072
F0.025
tp709
sg20
F200000000000.0
sg60
g26
(g30
S'o\x14\x96\x82|5\xb7?'
p710
tp711
Rp712
sba(ibikewheelcalc.bikewheelcalc.bicycle_wheel
Spoke
p713
(dp714
g25
g26
(g30
S'\x00\x00\x00\x00\x00\x00\x00\x00'
p715
tp716
Rp717
sg36
F0.002
sg37
(F0.3
F6.1086523819801535
F-0.0
tp718
sg39
g72
sg43
F628318.5307179586
sg44
g26
(g30
S'\xd3!"\x0c.\xac\xd1?'
p719
tp720
Rp721
sg48
g49
(g50
(I0
tp722
g52
tp723
Rp724
(I1
(L3L
tp725
g30
I00
S'\xc5\x1f_\xc4Y-\xb7\xbf\xae\xcb\x02n[\xde\xef?\x00\x00\x00\x00\x00\x00\x00\x00'
p726
tp727
bsg58
(F0.025
F6.1086523819801535
F-0.025
tp728
sg20
F200000000000.0
sg60
g26
(g30
S'o\x14\x96\x82|5\xb7\xbf'
p729
tp730
Rp731
sbasS'hub'
p732
(ibikewheelcalc.bikewheelcalc.bicycle_wheel
Hub
p733
(dp734
S'radius1'
p735
F0.025
sS'diam1'
p736
F0.05
sS'diam2'
p737
F0.05
sS'radius2'
p738
F0.025
sS'width2'
p739
F0.025
sS'width1'
p740
F0.025
sbsb.