(ibikewheelcalc.bikewheelcalc.bicycle_wheel
BicycleWheel
p0
(dp1
S'rim'
p2
(ibikewheelcalc.bikewheelcalc.bicycle_wheel
Rim
p3
(dp4
S'shear_mod'
p5
F26000000000.0
sS'sec_params'
p6
(dp7
sS'area'
p8
F0.0001
sS'I33'
p9
F2.898550724637681e-09
sS'I22'
p10
F2.898550724637681e-09
sS'I11'
p11
F3.076923076923077e-09
sS'Iw'
p12
F0.0
sS'sec_type'
p13
S'general'
p14
sS'radius'
p15
F0.3
sS'young_mod'
p16
F69000000000.0
sbsS'spokes'
p17
(lp18
(ibikewheelcalc.bikewheelcalc.bicycle_wheel
Spoke
p19
(dp20
S'beta'
p21
cnumpy.core.multiarray
scalar
p22
(cnumpy
dtype
p23
(S'f8'
p24
I0
I1
tp25
Rp26
(I3
S'<'
p27
NNNI-1
I-1
I0
tp28
bS'\x00\x00\x00\x00\x00\x00\x00\x00'
p29
tp30
Rp31
sS'diameter'
p32
F0.0015
sS'rim_pt'
p33
(F0.3
F0.0
F0.0
tp34
sS'tension'
p35
g22
(g26
S'\xd0\xeb\x8blH\x08\x95@'
p36
tp37
Rp38
sS'EA'
p39
F371100.6322052943
sS'length'
p40
g22
(g26
S'\xd3!"\x0c.\xac\xd1?'
p41
tp42
Rp43
sS'n'
p44
cnumpy.core.multiarray
_reconstruct
p45
(cnumpy
ndarray
p46
(I0
tp47
S'b'
p48
tp49
Rp50
(I1
(L3L
tp51
g26
I00
S'\xc5\x1f_\xc4Y-\xb7?\xae\xcb\x02n[\xde\xef?\x00\x00\x00\x00\x00\x00\x00\x00'
p52
tp53
bsS'hub_pt'
p54
(F0.025
F0.0
F0.025
tp55
sg16
F210000000000.0
sS'alpha'
p56
g22
(g26
S'o\x14\x96\x82|5\xb7?'
p57
tp58
Rp59
sba(ibikewheelcalc.bikewheelcalc.bicycle_wheel
Spoke
p60
(dp61
g21
g22
(g26
S'\x00\x00\x00\x00\x00\x00\x00\x00'
p62
tp63
Rp64
sg32
F0.0015
sg33
(F0.3
F0.2617993877991494
F-0.0
tp65
sg35
g22
(g26
S'\xd0\xeb\x8blH\x08\x95@'
p66
tp67
Rp68
sg39
F371100.6322052943
sg40
g22
(g26
S'\xd3!"\x0c.\xac\xd1?'
p69
tp70
Rp71
sg44
g45
(g46
(I0
tp72
g48
tp73
Rp74
(I1
(L3L
tp75
g26
I00
S'\xc5\x1f_\xc4Y-\xb7\xbf\xae\xcb\x02n[\xde\xef?\x00\x00\x00\x00\x00\x00\x00\x00'
p76
tp77
bsg54
(F0.025
F0.2617993877991494
F-0.025
tp78
sg16
F210000000000.0
sg56
g22
(g26
S'o\x14\x96\x82|5\xb7\xbf'
p79
tp80
Rp81
sba(ibikewheelcalc.bikewheelcalc.bicycle_wheel
Spoke
p82
(dp83
g21
g22
(g26
S'\x00\x00\x00\x00\x00\x00\x00\x00'
p84
tp85
Rp86
sg32
F0.0015
sg33
(F0.3
F0.5235987755982988
F0.0
tp87
sg35
g38
sg39
F371100.6322052943
sg40
g22
(g26
S'\xd3!"\x0c.\xac\xd1?'
p88
tp89
Rp90
sg44
g45
(g46
(I0
tp91
g48
tp92
Rp93
(I1
(L3L
tp94
g26
I00
S'\xc5\x1f_\xc4Y-\xb7?\xae\xcb\x02n[\xde\xef?\x00\x00\x00\x00\x00\x00\x00\x00'
p95
tp96
bsg54
(F0.025
F0.5235987755982988
F0.025
tp97
sg16
F210000000000.0
sg56
g22
(g26
S'o\x14\x96\x82|5\xb7?'
p98
tp99
Rp100
sba(ibikewheelcalc.bikewheelcalc.bicycle_wheel
Spoke
p101
(dp102
g21
g22
(g26
S'\x00\x00\x00\x00\x00\x00\x00\x00'
p103
tp104
Rp105
sg32
F0.0015
sg33
(F0.3
F0.7853981633974483
F-0.0
tp106
sg35
g68
sg39
F371100.6322052943
sg40
g22
(g26
S'\xd3!"\x0c.\xac\xd1?'
p107
tp108
Rp109
sg44
g45
(g46
(I0
tp110
g48
tp111
Rp112
(I1
(L3L
tp113
g26
I00
S'\xc5\x1f_\xc4Y-\xb7\xbf\xae\xcb\x02n[\xde\xef?\x00\x00\x00\x00\x00\x00\x00\x00'
p114
tp115
bsg54
(F0.025
F0.7853981633974483
F-0.025
tp116
sg16
F210000000000.0
sg56
g22
(g26
S'o\x14\x96\x82|5\xb7\xbf'
p117
tp118
Rp119
sba(ibikewheelcalc.bikewheelcalc.bicycle_wheel
Spoke
p120
(dp121
g21
g22
(g26
S'\x00\x00\x00\x00\x00\x00\x00\x00'
p122
tp123
Rp124
sg32
F0.0015
sg33
(F0.3
F1.0471975511965976
F0.0
tp125
sg35
g38
sg39
F371100.6322052943
sg40
g22
(g26
S'\xd3!"\x0c.\xac\xd1?'
p126
tp127
Rp128
sg44
g45
(g46
(I0
tp129
g48
tp130
Rp131
(I1
(L3L
tp132
g26
I00
S'\xc5\x1f_\xc4Y-\xb7?\xae\xcb\x02n[\xde\xef?\x00\x00\x00\x00\x00\x00\x00\x00'
p133
tp134
bsg54
(F0.025
F1.0471975511965976
F0.025
tp135
sg16
F210000000000.0
sg56
g22
(g26
S'o\x14\x96\x82|5\xb7?'
p136
tp137
Rp138
sba(ibikewheelcalc.bikewheelcalc.bicycle_wheel
Spoke
p139
(dp140
g21
g22
(g26
S'\x00\x00\x00\x00\x00\x00\x00\x00'
p141
tp142
Rp143
sg32
F0.0015
sg33
(F0.3
F1.308996938995747
F-0.0
tp144
sg35
g68
sg39
F371100.6322052943
sg40
g22
(g26
S'\xd3!"\x0c.\xac\xd1?'
p145
tp146
Rp147
sg44
g45
(g46
(I0
tp148
g48
tp149
Rp150
(I1
(L3L
tp151
g26
I00
S'\xc5\x1f_\xc4Y-\xb7\xbf\xae\xcb\x02n[\xde\xef?\x00\x00\x00\x00\x00\x00\x00\x00'
p152
tp153
bsg54
(F0.025
F1.308996938995747
F-0.025
tp154
sg16
F210000000000.0
sg56
g22
(g26
S'o\x14\x96\x82|5\xb7\xbf'
p155
tp156
Rp157
sba(ibikewheelcalc.bikewheelcalc.bicycle_wheel
Spoke
p158
(dp159
g21
g22
(g26
S'\x00\x00\x00\x00\x00\x00\x00\x00'
p160
tp161
Rp162
sg32
F0.0015
sg33
(F0.3
F1.5707963267948966
F0.0
tp163
sg35
g38
sg39
F371100.6322052943
sg40
g22
(g26
S'\xd3!"\x0c.\xac\xd1?'
p164
tp165
Rp166
sg44
g45
(g46
(I0
tp167
g48
tp168
Rp169
(I1
(L3L
tp170
g26
I00
S'\xc5\x1f_\xc4Y-\xb7?\xae\xcb\x02n[\xde\xef?\x00\x00\x00\x00\x00\x00\x00\x00'
p171
tp172
bsg54
(F0.025
F1.5707963267948966
F0.025
tp173
sg16
F210000000000.0
sg56
g22
(g26
S'o\x14\x96\x82|5\xb7?'
p174
tp175
Rp176
sba(ibikewheelcalc.bikewheelcalc.bicycle_wheel
Spoke
p177
(dp178
g21
g22
(g26
S'\x00\x00\x00\x00\x00\x00\x00\x00'
p179
tp180
Rp181
sg32
F0.0015
sg33
(F0.3
F1.832595714594046
F-0.0
tp182
sg35
g68
sg39
F371100.6322052943
sg40
g22
(g26
S'\xd3!"\x0c.\xac\xd1?'
p183
tp184
Rp185
sg44
g45
(g46
(I0
tp186
g48
tp187
Rp188
(I1
(L3L
tp189
g26
I00
S'\xc5\x1f_\xc4Y-\xb7\xbf\xae\xcb\x02n[\xde\xef?\x00\x00\x00\x00\x00\x00\x00\x00'
p190
tp191
bsg54
(F0.025
F1.832595714594046
F-0.025
tp192
sg16
F210000000000.0
sg56
g22
(g26
S'o\x14\x96\x82|5\xb7\xbf'
p193
tp194
Rp195
sba(ibikewheelcalc.bikewheelcalc.bicycle_wheel
Spoke
p196
(dp197
g21
g22
(g26
S'\x00\x00\x00\x00\x00\x00\x00\x00'
p198
tp199
Rp200
sg32
F0.0015
sg33
(F0.3
F2.0943951023931953
F0.0
tp201
sg35
g38
sg39
F371100.6322052943
sg40
g22
(g26
S'\xd3!"\x0c.\xac\xd1?'
p202
tp203
Rp204
sg44
g45
(g46
(I0
tp205
g48
tp206
Rp207
(I1
(L3L
tp208
g26
I00
S'\xc5\x1f_\xc4Y-\xb7?\xae\xcb\x02n[\xde\xef?\x00\x00\x00\x00\x00\x00\x00\x00'
p209
tp210
bsg54
(F0.025
F2.0943951023931953
F0.025
tp211
sg16
F210000000000.0
sg56
g22
(g26
S'o\x14\x96\x82|5\xb7?'
p212
tp213
Rp214
sba(ibikewheelcalc.bikewheelcalc.bicycle_wheel
Spoke
p215
(dp216
g21
g22
(g26
S'\x00\x00\x00\x00\x00\x00\x00\x00'
p217
tp218
Rp219
sg32
F0.0015
sg33
(F0.3
F2.356194490192345
F-0.0
tp220
sg35
g68
sg39
F371100.6322052943
sg40
g22
(g26
S'\xd3!"\x0c.\xac\xd1?'
p221
tp222
Rp223
sg44
g45
(g46
(I0
tp224
g48
tp225
Rp226
(I1
(L3L
tp227
g26
I00
S'\xc5\x1f_\xc4Y-\xb7\xbf\xae\xcb\x02n[\xde\xef?\x00\x00\x00\x00\x00\x00\x00\x00'
p228
tp229
bsg54
(F0.025
F2.356194490192345
F-0.025
tp230
sg16
F210000000000.0
sg56
g22
(g26
S'o\x14\x96\x82|5\xb7\xbf'
p231
tp232
Rp233
sba(ibikewheelcalc.bikewheelcalc.bicycle_wheel
Spoke
p234
(dp235
g21
g22
(g26
S'\x00\x00\x00\x00\x00\x00\x00\x00'
p236
tp237
Rp238
sg32
F0.0015
sg33
(F0.3
F2.617993877991494
F0.0
tp239
sg35
g38
sg39
F371100.6322052943
sg40
g22
(g26
S'\xd3!"\x0c.\xac\xd1?'
p240
tp241
Rp242
sg44
g45
(g46
(I0
tp243
g48
tp244
Rp245
(I1
(L3L
tp246
g26
I00
S'\xc5\x1f_\xc4Y-\xb7?\xae\xcb\x02n[\xde\xef?\x00\x00\x00\x00\x00\x00\x00\x00'
p247
tp248
bsg54
(F0.025
F2.617993877991494
F0.025
tp249
sg16
F210000000000.0
sg56
g22
(g26
S'o\x14\x96\x82|5\xb7?'
p250
tp251
Rp252
sba(ibikewheelcalc.bikewheelcalc.bicycle_wheel
Spoke
p253
(dp254
g21
g22
(g26
S'\x00\x00\x00\x00\x00\x00\x00\x00'
p255
tp256
Rp257
sg32
F0.0015
sg33
(F0.3
F2.8797932657906435
F-0.0
tp258
sg35
g68
sg39
F371100.6322052943
sg40
g22
(g26
S'\xd3!"\x0c.\xac\xd1?'
p259
tp260
Rp261
sg44
g45
(g46
(I0
tp262
g48
tp263
Rp264
(I1
(L3L
tp265
g26
I00
S'\xc5\x1f_\xc4Y-\xb7\xbf\xae\xcb\x02n[\xde\xef?\x00\x00\x00\x00\x00\x00\x00\x00'
p266
tp267
bsg54
(F0.025
F2.8797932657906435
F-0.025
tp268
sg16
F210000000000.0
sg56
g22
(g26
S'o\x14\x96\x82|5\xb7\xbf'
p269
tp270
Rp271
sba(ibikewheelcalc.bikewheelcalc.bicycle_wheel
Spoke
p272
(dp273
g21
g22
(g26
S'\x00\x00\x00\x00\x00\x00\x00\x00'
p274
tp275
Rp276
sg32
F0.0015
sg33
(F0.3
F3.141592653589793
F0.0
tp277
sg35
g38
sg39
F371100.6322052943
sg40
g22
(g26
S'\xd3!"\x0c.\xac\xd1?'
p278
tp279
Rp280
sg44
g45
(g46
(I0
tp281
g48
tp282
Rp283
(I1
(L3L
tp284
g26
I00
S'\xc5\x1f_\xc4Y-\xb7?\xae\xcb\x02n[\xde\xef?\x00\x00\x00\x00\x00\x00\x00\x00'
p285
tp286
bsg54
(F0.025
F3.141592653589793
F0.025
tp287
sg16
F210000000000.0
sg56
g22
(g26
S'o\x14\x96\x82|5\xb7?'
p288
tp289
Rp290
sba(ibikewheelcalc.bikewheelcalc.bicycle_wheel
Spoke
p291
(dp292
g21
g22
(g26
S'\x00\x00\x00\x00\x00\x00\x00\x00'
p293
tp294
Rp295
sg32
F0.0015
sg33
(F0.3
F3.4033920413889422
F-0.0
tp296
sg35
g68
sg39
F371100.6322052943
sg40
g22
(g26
S'\xd3!"\x0c.\xac\xd1?'
p297
tp298
Rp299
sg44
g45
(g46
(I0
tp300
g48
tp301
Rp302
(I1
(L3L
tp303
g26
I00
S'\xc5\x1f_\xc4Y-\xb7\xbf\xae\xcb\x02n[\xde\xef?\x00\x00\x00\x00\x00\x00\x00\x00'
p304
tp305
bsg54
(F0.025
F3.4033920413889422
F-0.025
tp306
sg16
F210000000000.0
sg56
g22
(g26
S'o\x14\x96\x82|5\xb7\xbf'
p307
tp308
Rp309
sba(ibikewheelcalc.bikewheelcalc.bicycle_wheel
Spoke
p310
(dp311
g21
g22
(g26
S'\x00\x00\x00\x00\x00\x00\x00\x00'
p312
tp313
Rp314
sg32
F0.0015
sg33
(F0.3
F3.665191429188092
F0.0
tp315
sg35
g38
sg39
F371100.6322052943
sg40
g22
(g26
S'\xd3!"\x0c.\xac\xd1?'
p316
tp317
Rp318
sg44
g45
(g46
(I0
tp319
g48
tp320
Rp321
(I1
(L3L
tp322
g26
I00
S'\xc5\x1f_\xc4Y-\xb7?\xae\xcb\x02n[\xde\xef?\x00\x00\x00\x00\x00\x00\x00\x00'
p323
tp324
bsg54
(F0.025
F3.665191429188092
F0.025
tp325
sg16
F210000000000.0
sg56
g22
(g26
S'o\x14\x96\x82|5\xb7?'
p326
tp327
Rp328
sba(ibikewheelcalc.bikewheelcalc.bicycle_wheel
Spoke
p329
(dp330
g21
g22
(g26
S'\x00\x00\x00\x00\x00\x00\x00\x00'
p331
tp332
Rp333
sg32
F0.0015
sg33
(F0.3
F3.926990816987241
F-0.0
tp334
sg35
g68
sg39
F371100.6322052943
sg40
g22
(g26
S'\xd3!"\x0c.\xac\xd1?'
p335
tp336
Rp337
sg44
g45
(g46
(I0
tp338
g48
tp339
Rp340
(I1
(L3L
tp341
g26
I00
S'\xc5\x1f_\xc4Y-\xb7\xbf\xae\xcb\x02n[\xde\xef?\x00\x00\x00\x00\x00\x00\x00\x00'
p342
tp343
bsg54
(F0.025
F3.926990816987241
F-0.025
tp344
sg16
F210000000000.0
sg56
g22
(g26
S'o\x14\x96\x82|5\xb7\xbf'
p345
tp346
Rp347
sba(ibikewheelcalc.bikewheelcalc.bicycle_wheel
Spoke
p348
(dp349
g21
g22
(g26
S'\x00\x00\x00\x00\x00\x00\x00\x00'
p350
tp351
Rp352
sg32
F0.0015
sg33
(F0.3
F4.1887902047863905
F0.0
tp353
sg35
g38
sg39
F371100.6322052943
sg40
g22
(g26
S'\xd3!"\x0c.\xac\xd1?'
p354
tp355
Rp356
sg44
g45
(g46
(I0
tp357
g48
tp358
Rp359
(I1
(L3L
tp360
g26
I00
S'\xc5\x1f_\xc4Y-\xb7?\xae\xcb\x02n[\xde\xef?\x00\x00\x00\x00\x00\x00\x00\x00'
p361
tp362
bsg54
(F0.025
F4.1887902047863905
F0.025
tp363
sg16
F210000000000.0
sg56
g22
(g26
S'o\x14\x96\x82|5\xb7?'
p364
tp365
Rp366
sba(ibikewheelcalc.bikewheelcalc.bicycle_wheel
Spoke
p367
(dp368
g21
g22
(g26
S'\x00\x00\x00\x00\x00\x00\x00\x00'
p369
tp370
Rp371
sg32
F0.0015
sg33
(F0.3
F4.45058959258554
F-0.0
tp372
sg35
g68
sg39
F371100.6322052943
sg40
g22
(g26
S'\xd3!"\x0c.\xac\xd1?'
p373
tp374
Rp375
sg44
g45
(g46
(I0
tp376
g48
tp377
Rp378
(I1
(L3L
tp379
g26
I00
S'\xc5\x1f_\xc4Y-\xb7\xbf\xae\xcb\x02n[\xde\xef?\x00\x00\x00\x00\x00\x00\x00\x00'
p380
tp381
bsg54
(F0.025
F4.45058959258554
F-0.025
tp382
sg16
F210000000000.0
sg56
g22
(g26
S'o\x14\x96\x82|5\xb7\xbf'
p383
tp384
Rp385
sba(ibikewheelcalc.bikewheelcalc.bicycle_wheel
Spoke
p386
(dp387
g21
g22
(g26
S'\x00\x00\x00\x00\x00\x00\x00\x00'
p388
tp389
Rp390
sg32
F0.0015
sg33
(F0.3
F4.71238898038469
F0.0
tp391
sg35
g38
sg39
F371100.6322052943
sg40
g22
(g26
S'\xd3!"\x0c.\xac\xd1?'
p392
tp393
Rp394
sg44
g45
(g46
(I0
tp395
g48
tp396
Rp397
(I1
(L3L
tp398
g26
I00
S'\xc5\x1f_\xc4Y-\xb7?\xae\xcb\x02n[\xde\xef?\x00\x00\x00\x00\x00\x00\x00\x00'
p399
tp400
bsg54
(F0.025
F4.71238898038469
F0.025
tp401
sg16
F210000000000.0
sg56
g22
(g26
S'o\x14\x96\x82|5\xb7?'
p402
tp403
Rp404
sba(ibikewheelcalc.bikewheelcalc.bicycle_wheel
Spoke
p405
(dp406
g21
g22
(g26
S'\x00\x00\x00\x00\x00\x00\x00\x00'
p407
tp408
Rp409
sg32
F0.0015
sg33
(F0.3
F4.974188368183839
F-0.0
tp410
sg35
g68
sg39
F371100.6322052943
sg40
g22
(g26
S'\xd3!"\x0c.\xac\xd1?'
p411
tp412
Rp413
sg44
g45
(g46
(I0
tp414
g48
tp415
Rp416
(I1
(L3L
tp417
g26
I00
S'\xc5\x1f_\xc4Y-\xb7\xbf\xae\xcb\x02n[\xde\xef?\x00\x00\x00\x00\x00\x00\x00\x00'
p418
tp419
bsg54
(F0.025
F4.974188368183839
F-0.025
tp420
sg16
F210000000000.0
sg56
g22
(g26
S'o\x14\x96\x82|5\xb7\xbf'
p421
tp422
Rp423
sba(ibikewheelcalc.bikewheelcalc.bicycle_wheel
Spoke
p424
(dp425
g21
g22
(g26
S'\x00\x00\x00\x00\x00\x00\x00\x00'
p426
tp427
Rp428
sg32
F0.0015
sg33
(F0.3
F5.235987755982988
F0.0
tp429
sg35
g38
sg39
F371100.6322052943
sg40
g22
(g26
S'\xd3!"\x0c.\xac\xd1?'
p430
tp431
Rp432
sg44
g45
(g46
(I0
tp433
g48
tp434
Rp435
(I1
(L3L
tp436
g26
I00
S'\xc5\x1f_\xc4Y-\xb7?\xae\xcb\x02n[\xde\xef?\x00\x00\x00\x00\x00\x00\x00\x00'
p437
tp438
bsg54
(F0.025
F5.235987755982988
F0.025
tp439
sg16
F210000000000.0
sg56
g22
(g26
S'o\x14\x96\x82|5\xb7?'
p440
tp441
Rp442
sba(ibikewheelcalc.bikewheelcalc.bicycle_wheel
Spoke
p443
(dp444
g21
g22
(g26
S'\x00\x00\x00\x00\x00\x00\x00\x00'
p445
tp446
Rp447
sg32
F0.0015
sg33
(F0.3
F5.497787143782138
F-0.0
tp448
sg35
g68
sg39
F371100.6322052943
sg40
g22
(g26
S'\xd3!"\x0c.\xac\xd1?'
p449
tp450
Rp451
sg44
g45
(g46
(I0
tp452
g48
tp453
Rp454
(I1
(L3L
tp455
g26
I00
S'\xc5\x1f_\xc4Y-\xb7\xbf\xae\xcb\x02n[\xde\xef?\x00\x00\x00\x00\x00\x00\x00\x00'
p456
tp457
bsg54
(F0.025
F5.497787143782138
F-0.025
tp458
sg16
F210000000000.0
sg56
g22
(g26
S'o\x14\x96\x82|5\xb7\xbf'
p459
tp460
Rp461
sba(ibikewheelcalc.bikewheelcalc.bicycle_wheel
Spoke
p462
(dp463
g21
g22
(g26
S'\x00\x00\x00\x00\x00\x00\x00\x00'
p464
tp465
Rp466
sg32
F0.0015
sg33
(F0.3
F5.759586531581287
F0.0
tp467
sg35
g38
sg39
F371100.6322052943
sg40
g22
(g26
S'\xd3!"\x0c.\xac\xd1?'
p468
tp469
Rp470
sg44
g45
(g46
(I0
tp471
g48
tp472
Rp473
(I1
(L3L
tp474
g26
I00
S'\xc5\x1f_\xc4Y-\xb7?\xae\xcb\x02n[\xde\xef?\x00\x00\x00\x00\x00\x00\x00\x00'
p475
tp476
bsg54
(F0.025
F5.759586531581287
F0.025
tp477
sg16
F210000000000.0
sg56
g22
(g26
S'o\x14\x96\x82|5\xb7?'
p478
tp479
Rp480
sba(ibikewheelcalc.bikewheelcalc.bicycle_wheel
Spoke
p481
(dp482
g21
g22
(g26
S'\x00\x00\x00\x00\x00\x00\x00\x00'
p483
tp484
Rp485
sg32
F0.0015
sg33
(F0.3
F6.021385919380436
F-0.0
tp486
sg35
g68
sg39
F371100.6322052943
sg40
g22
(g26
S'\xd3!"\x0c.\xac\xd1?'
p487
tp488
Rp489
sg44
g45
(g46
(I0
tp490
g48
tp491
Rp492
(I1
(L3L
tp493
g26
I00
S'\xc5\x1f_\xc4Y-\xb7\xbf\xae\xcb\x02n[\xde\xef?\x00\x00\x00\x00\x00\x00\x00\x00'
p494
tp495
bsg54
(F0.025
F6.021385919380436
F-0.025
tp496
sg16
F210000000000.0
sg56
g22
(g26
S'o\x14\x96\x82|5\xb7\xbf'
p497
tp498
Rp499
sbasS'hub'
p500
(ibikewheelcalc.bikewheelcalc.bicycle_wheel
Hub
p501
(dp502
S'radius1'
p503
F0.025
sS'diam1'
p504
F0.05
sS'diam2'
p505
F0.05
sS'radius2'
p506
F0.025
sS'width2'
p507
F0.025
sS'width1'
p508
F0.025
sbsb.