(ibikewheelcalc.bikewheelcalc.bicycle_wheel
BicycleWheel
p0
(dp1
S'rim'
p2
(ibikewheelcalc.bikewheelcalc.bicycle_wheel
Rim
p3
(dp4
S'shear_mod'
p5
F26000000000.0
sS'sec_params'
p6
(dp7
sS'area'
p8
F0.0001
sS'I33'
p9
F2.898550724637681e-09
sS'I22'
p10
F2.898550724637681e-09
sS'I11'
p11
F3.076923076923077e-09
sS'Iw'
p12
F0.0
sS'sec_type'
p13
S'general'
p14
sS'radius'
p15
F0.301
sS'young_mod'
p16
F69000000000.0
sbsS'spokes'
p17
(lp18
(ibikewheelcalc.bikewheelcalc.bicycle_wheel
Spoke
p19
(dp20
S'beta'
p21
cnumpy.core.multiarray
scalar
p22
(cnumpy
dtype
p23
(S'f8'
p24
I0
I1
tp25
Rp26
(I3
S'<'
p27
NNNI-1
I-1
I0
tp28
bS'\x00\x00\x00\x00\x00\x00\x00\x00'
p29
tp30
Rp31
sS'diameter'
p32
F0.002
sS'rim_pt'
p33
(F0.301
F0.0
F0.0
tp34
sS'tension'
p35
g22
(g26
S'\x88\xfaYP\xbe\xe8s@'
p36
tp37
Rp38
sS'EA'
p39
F659734.4572538565
sS'length'
p40
g22
(g26
S'\xb76U\xa0z\x1f\xd2?'
p41
tp42
Rp43
sS'n'
p44
cnumpy.core.multiarray
_reconstruct
p45
(cnumpy
ndarray
p46
(I0
tp47
S'b'
p48
tp49
Rp50
(I1
(L3L
tp51
g26
I00
S'\x0fI\xfbRA\xa4\xbf?\x0fL\x90E/\xc1\xef?\x00\x00\x00\x00\x00\x00\x00\x00'
p52
tp53
bsS'hub_pt'
p54
(F0.02
F0.0
F0.035
tp55
sg16
F210000000000.0
sS'alpha'
p56
g22
(g26
S'p\n\x94\xd8\x05\xb9\xbf?'
p57
tp58
Rp59
sba(ibikewheelcalc.bikewheelcalc.bicycle_wheel
Spoke
p60
(dp61
g21
g22
(g26
S'\x00\x00\x00\x00\x00\x00\x00\x00'
p62
tp63
Rp64
sg32
F0.002
sg33
(F0.301
F0.1308996938995747
F-0.0
tp65
sg35
g22
(g26
S'\x88\xfaYP\xbe\xe8s@'
p66
tp67
Rp68
sg39
F659734.4572538565
sg40
g22
(g26
S'\xb76U\xa0z\x1f\xd2?'
p69
tp70
Rp71
sg44
g45
(g46
(I0
tp72
g48
tp73
Rp74
(I1
(L3L
tp75
g26
I00
S'\x0fI\xfbRA\xa4\xbf\xbf\x0fL\x90E/\xc1\xef?\x00\x00\x00\x00\x00\x00\x00\x00'
p76
tp77
bsg54
(F0.02
F0.1308996938995747
F-0.035
tp78
sg16
F210000000000.0
sg56
g22
(g26
S'p\n\x94\xd8\x05\xb9\xbf\xbf'
p79
tp80
Rp81
sba(ibikewheelcalc.bikewheelcalc.bicycle_wheel
Spoke
p82
(dp83
g21
g22
(g26
S'\x00\x00\x00\x00\x00\x00\x00\x00'
p84
tp85
Rp86
sg32
F0.002
sg33
(F0.301
F0.2617993877991494
F0.0
tp87
sg35
g38
sg39
F659734.4572538565
sg40
g22
(g26
S'\xb76U\xa0z\x1f\xd2?'
p88
tp89
Rp90
sg44
g45
(g46
(I0
tp91
g48
tp92
Rp93
(I1
(L3L
tp94
g26
I00
S'\x0fI\xfbRA\xa4\xbf?\x0fL\x90E/\xc1\xef?\x00\x00\x00\x00\x00\x00\x00\x00'
p95
tp96
bsg54
(F0.02
F0.2617993877991494
F0.035
tp97
sg16
F210000000000.0
sg56
g22
(g26
S'p\n\x94\xd8\x05\xb9\xbf?'
p98
tp99
Rp100
sba(ibikewheelcalc.bikewheelcalc.bicycle_wheel
Spoke
p101
(dp102
g21
g22
(g26
S'\x00\x00\x00\x00\x00\x00\x00\x00'
p103
tp104
Rp105
sg32
F0.002
sg33
(F0.301
F0.39269908169872414
F-0.0
tp106
sg35
g68
sg39
F659734.4572538565
sg40
g22
(g26
S'\xb76U\xa0z\x1f\xd2?'
p107
tp108
Rp109
sg44
g45
(g46
(I0
tp110
g48
tp111
Rp112
(I1
(L3L
tp113
g26
I00
S'\x0fI\xfbRA\xa4\xbf\xbf\x0fL\x90E/\xc1\xef?\x00\x00\x00\x00\x00\x00\x00\x00'
p114
tp115
bsg54
(F0.02
F0.39269908169872414
F-0.035
tp116
sg16
F210000000000.0
sg56
g22
(g26
S'p\n\x94\xd8\x05\xb9\xbf\xbf'
p117
tp118
Rp119
sba(ibikewheelcalc.bikewheelcalc.bicycle_wheel
Spoke
p120
(dp121
g21
g22
(g26
S'\x00\x00\x00\x00\x00\x00\x00\x00'
p122
tp123
Rp124
sg32
F0.002
sg33
(F0.301
F0.5235987755982988
F0.0
tp125
sg35
g38
sg39
F659734.4572538565
sg40
g22
(g26
S'\xb76U\xa0z\x1f\xd2?'
p126
tp127
Rp128
sg44
g45
(g46
(I0
tp129
g48
tp130
Rp131
(I1
(L3L
tp132
g26
I00
S'\x0fI\xfbRA\xa4\xbf?\x0fL\x90E/\xc1\xef?\x00\x00\x00\x00\x00\x00\x00\x00'
p133
tp134
bsg54
(F0.02
F0.5235987755982988
F0.035
tp135
sg16
F210000000000.0
sg56
g22
(g26
S'p\n\x94\xd8\x05\xb9\xbf?'
p136
tp137
Rp138
sba(ibikewheelcalc.bikewheelcalc.bicycle_wheel
Spoke
p139
(dp140
g21
g22
(g26
S'\x00\x00\x00\x00\x00\x00\x00\x00'
p141
tp142
Rp143
sg32
F0.002
sg33
(F0.301
F0.6544984694978735
F-0.0
tp144
sg35
g68
sg39
F659734.4572538565
sg40
g22
(g26
S'\xb76U\xa0z\x1f\xd2?'
p145
tp146
Rp147
sg44
g45
(g46
(I0
tp148
g48
tp149
Rp150
(I1
(L3L
tp151
g26
I00
S'\x0fI\xfbRA\xa4\xbf\xbf\x0fL\x90E/\xc1\xef?\x00\x00\x00\x00\x00\x00\x00\x00'
p152
tp153
bsg54
(F0.02
F0.6544984694978735
F-0.035
tp154
sg16
F210000000000.0
sg56
g22
(g26
S'p\n\x94\xd8\x05\xb9\xbf\xbf'
p155
tp156
Rp157
sba(ibikewheelcalc.bikewheelcalc.bicycle_wheel
Spoke
p158
(dp159
g21
g22
(g26
S'\x00\x00\x00\x00\x00\x00\x00\x00'
p160
tp161
Rp162
sg32
F0.002
sg33
(F0.301
F0.7853981633974483
F0.0
tp163
sg35
g38
sg39
F659734.4572538565
sg40
g22
(g26
S'\xb76U\xa0z\x1f\xd2?'
p164
tp165
Rp166
sg44
g45
(g46
(I0
tp167
g48
tp168
Rp169
(I1
(L3L
tp170
g26
I00
S'\x0fI\xfbRA\xa4\xbf?\x0fL\x90E/\xc1\xef?\x00\x00\x00\x00\x00\x00\x00\x00'
p171
tp172
bsg54
(F0.02
F0.7853981633974483
F0.035
tp173
sg16
F210000000000.0
sg56
g22
(g26
S'p\n\x94\xd8\x05\xb9\xbf?'
p174
tp175
Rp176
sba(ibikewheelcalc.bikewheelcalc.bicycle_wheel
Spoke
p177
(dp178
g21
g22
(g26
S'\x00\x00\x00\x00\x00\x00\x00\x00'
p179
tp180
Rp181
sg32
F0.002
sg33
(F0.301
F0.916297857297023
F-0.0
tp182
sg35
g68
sg39
F659734.4572538565
sg40
g22
(g26
S'\xb76U\xa0z\x1f\xd2?'
p183
tp184
Rp185
sg44
g45
(g46
(I0
tp186
g48
tp187
Rp188
(I1
(L3L
tp189
g26
I00
S'\x0fI\xfbRA\xa4\xbf\xbf\x0fL\x90E/\xc1\xef?\x00\x00\x00\x00\x00\x00\x00\x00'
p190
tp191
bsg54
(F0.02
F0.916297857297023
F-0.035
tp192
sg16
F210000000000.0
sg56
g22
(g26
S'p\n\x94\xd8\x05\xb9\xbf\xbf'
p193
tp194
Rp195
sba(ibikewheelcalc.bikewheelcalc.bicycle_wheel
Spoke
p196
(dp197
g21
g22
(g26
S'\x00\x00\x00\x00\x00\x00\x00\x00'
p198
tp199
Rp200
sg32
F0.002
sg33
(F0.301
F1.0471975511965976
F0.0
tp201
sg35
g38
sg39
F659734.4572538565
sg40
g22
(g26
S'\xb76U\xa0z\x1f\xd2?'
p202
tp203
Rp204
sg44
g45
(g46
(I0
tp205
g48
tp206
Rp207
(I1
(L3L
tp208
g26
I00
S'\x0fI\xfbRA\xa4\xbf?\x0fL\x90E/\xc1\xef?\x00\x00\x00\x00\x00\x00\x00\x00'
p209
tp210
bsg54
(F0.02
F1.0471975511965976
F0.035
tp211
sg16
F210000000000.0
sg56
g22
(g26
S'p\n\x94\xd8\x05\xb9\xbf?'
p212
tp213
Rp214
sba(ibikewheelcalc.bikewheelcalc.bicycle_wheel
Spoke
p215
(dp216
g21
g22
(g26
S'\x00\x00\x00\x00\x00\x00\x00\x00'
p217
tp218
Rp219
sg32
F0.002
sg33
(F0.301
F1.1780972450961724
F-0.0
tp220
sg35
g68
sg39
F659734.4572538565
sg40
g22
(g26
S'\xb76U\xa0z\x1f\xd2?'
p221
tp222
Rp223
sg44
g45
(g46
(I0
tp224
g48
tp225
Rp226
(I1
(L3L
tp227
g26
I00
S'\x0fI\xfbRA\xa4\xbf\xbf\x0fL\x90E/\xc1\xef?\x00\x00\x00\x00\x00\x00\x00\x00'
p228
tp229
bsg54
(F0.02
F1.1780972450961724
F-0.035
tp230
sg16
F210000000000.0
sg56
g22
(g26
S'p\n\x94\xd8\x05\xb9\xbf\xbf'
p231
tp232
Rp233
sba(ibikewheelcalc.bikewheelcalc.bicycle_wheel
Spoke
p234
(dp235
g21
g22
(g26
S'\x00\x00\x00\x00\x00\x00\x00\x00'
p236
tp237
Rp238
sg32
F0.002
sg33
(F0.301
F1.308996938995747
F0.0
tp239
sg35
g38
sg39
F659734.4572538565
sg40
g22
(g26
S'\xb76U\xa0z\x1f\xd2?'
p240
tp241
Rp242
sg44
g45
(g46
(I0
tp243
g48
tp244
Rp245
(I1
(L3L
tp246
g26
I00
S'\x0fI\xfbRA\xa4\xbf?\x0fL\x90E/\xc1\xef?\x00\x00\x00\x00\x00\x00\x00\x00'
p247
tp248
bsg54
(F0.02
F1.308996938995747
F0.035
tp249
sg16
F210000000000.0
sg56
g22
(g26
S'p\n\x94\xd8\x05\xb9\xbf?'
p250
tp251
Rp252
sba(ibikewheelcalc.bikewheelcalc.bicycle_wheel
Spoke
p253
(dp254
g21
g22
(g26
S'\x00\x00\x00\x00\x00\x00\x00\x00'
p255
tp256
Rp257
sg32
F0.002
sg33
(F0.301
F1.4398966328953218
F-0.0
tp258
sg35
g68
sg39
F659734.4572538565
sg40
g22
(g26
S'\xb76U\xa0z\x1f\xd2?'
p259
tp260
Rp261
sg44
g45
(g46
(I0
tp262
g48
tp263
Rp264
(I1
(L3L
tp265
g26
I00
S'\x0fI\xfbRA\xa4\xbf\xbf\x0fL\x90E/\xc1\xef?\x00\x00\x00\x00\x00\x00\x00\x00'
p266
tp267
bsg54
(F0.02
F1.4398966328953218
F-0.035
tp268
sg16
F210000000000.0
sg56
g22
(g26
S'p\n\x94\xd8\x05\xb9\xbf\xbf'
p269
tp270
Rp271
sba(ibikewheelcalc.bikewheelcalc.bicycle_wheel
Spoke
p272
(dp273
g21
g22
(g26
S'\x00\x00\x00\x00\x00\x00\x00\x00'
p274
tp275
Rp276
sg32
F0.002
sg33
(F0.301
F1.5707963267948966
F0.0
tp277
sg35
g38
sg39
F659734.4572538565
sg40
g22
(g26
S'\xb76U\xa0z\x1f\xd2?'
p278
tp279
Rp280
sg44
g45
(g46
(I0
tp281
g48
tp282
Rp283
(I1
(L3L
tp284
g26
I00
S'\x0fI\xfbRA\xa4\xbf?\x0fL\x90E/\xc1\xef?\x00\x00\x00\x00\x00\x00\x00\x00'
p285
tp286
bsg54
(F0.02
F1.5707963267948966
F0.035
tp287
sg16
F210000000000.0
sg56
g22
(g26
S'p\n\x94\xd8\x05\xb9\xbf?'
p288
tp289
Rp290
sba(ibikewheelcalc.bikewheelcalc.bicycle_wheel
Spoke
p291
(dp292
g21
g22
(g26
S'\x00\x00\x00\x00\x00\x00\x00\x00'
p293
tp294
Rp295
sg32
F0.002
sg33
(F0.301
F1.7016960206944711
F-0.0
tp296
sg35
g68
sg39
F659734.4572538565
sg40
g22
(g26
S'\xb76U\xa0z\x1f\xd2?'
p297
tp298
Rp299
sg44
g45
(g46
(I0
tp300
g48
tp301
Rp302
(I1
(L3L
tp303
g26
I00
S'\x0fI\xfbRA\xa4\xbf\xbf\x0fL\x90E/\xc1\xef?\x00\x00\x00\x00\x00\x00\x00\x00'
p304
tp305
bsg54
(F0.02
F1.7016960206944711
F-0.035
tp306
sg16
F210000000000.0
sg56
g22
(g26
S'p\n\x94\xd8\x05\xb9\xbf\xbf'
p307
tp308
Rp309
sba(ibikewheelcalc.bikewheelcalc.bicycle_wheel
Spoke
p310
(dp311
g21
g22
(g26
S'\x00\x00\x00\x00\x00\x00\x00\x00'
p312
tp313
Rp314
sg32
F0.002
sg33
(F0.301
F1.832595714594046
F0.0
tp315
sg35
g38
sg39
F659734.4572538565
sg40
g22
(g26
S'\xb76U\xa0z\x1f\xd2?'
p316
tp317
Rp318
sg44
g45
(g46
(I0
tp319
g48
tp320
Rp321
(I1
(L3L
tp322
g26
I00
S'\x0fI\xfbRA\xa4\xbf?\x0fL\x90E/\xc1\xef?\x00\x00\x00\x00\x00\x00\x00\x00'
p323
tp324
bsg54
(F0.02
F1.832595714594046
F0.035
tp325
sg16
F210000000000.0
sg56
g22
(g26
S'p\n\x94\xd8\x05\xb9\xbf?'
p326
tp327
Rp328
sba(ibikewheelcalc.bikewheelcalc.bicycle_wheel
Spoke
p329
(dp330
g21
g22
(g26
S'\x00\x00\x00\x00\x00\x00\x00\x00'
p331
tp332
Rp333
sg32
F0.002
sg33
(F0.301
F1.9634954084936205
F-0.0
tp334
sg35
g68
sg39
F659734.4572538565
sg40
g22
(g26
S'\xb76U\xa0z\x1f\xd2?'
p335
tp336
Rp337
sg44
g45
(g46
(I0
tp338
g48
tp339
Rp340
(I1
(L3L
tp341
g26
I00
S'\x0fI\xfbRA\xa4\xbf\xbf\x0fL\x90E/\xc1\xef?\x00\x00\x00\x00\x00\x00\x00\x00'
p342
tp343
bsg54
(F0.02
F1.9634954084936205
F-0.035
tp344
sg16
F210000000000.0
sg56
g22
(g26
S'p\n\x94\xd8\x05\xb9\xbf\xbf'
p345
tp346
Rp347
sba(ibikewheelcalc.bikewheelcalc.bicycle_wheel
Spoke
p348
(dp349
g21
g22
(g26
S'\x00\x00\x00\x00\x00\x00\x00\x00'
p350
tp351
Rp352
sg32
F0.002
sg33
(F0.301
F2.0943951023931953
F0.0
tp353
sg35
g38
sg39
F659734.4572538565
sg40
g22
(g26
S'\xb76U\xa0z\x1f\xd2?'
p354
tp355
Rp356
sg44
g45
(g46
(I0
tp357
g48
tp358
Rp359
(I1
(L3L
tp360
g26
I00
S'\x0fI\xfbRA\xa4\xbf?\x0fL\x90E/\xc1\xef?\x00\x00\x00\x00\x00\x00\x00\x00'
p361
tp362
bsg54
(F0.02
F2.0943951023931953
F0.035
tp363
sg16
F210000000000.0
sg56
g22
(g26
S'p\n\x94\xd8\x05\xb9\xbf?'
p364
tp365
Rp366
sba(ibikewheelcalc.bikewheelcalc.bicycle_wheel
Spoke
p367
(dp368
g21
g22
(g26
S'\x00\x00\x00\x00\x00\x00\x00\x00'
p369
tp370
Rp371
sg32
F0.002
sg33
(F0.301
F2.22529479629277
F-0.0
tp372
sg35
g68
sg39
F659734.4572538565
sg40
g22
(g26
S'\xb76U\xa0z\x1f\xd2?'
p373
tp374
Rp375
sg44
g45
(g46
(I0
tp376
g48
tp377
Rp378
(I1
(L3L
tp379
g26
I00
S'\x0fI\xfbRA\xa4\xbf\xbf\x0fL\x90E/\xc1\xef?\x00\x00\x00\x00\x00\x00\x00\x00'
p380
tp381
bsg54
(F0.02
F2.22529479629277
F-0.035
tp382
sg16
F210000000000.0
sg56
g22
(g26
S'p\n\x94\xd8\x05\xb9\xbf\xbf'
p383
tp384
Rp385
sba(ibikewheelcalc.bikewheelcalc.bicycle_wheel
Spoke
p386
(dp387
g21
g22
(g26
S'\x00\x00\x00\x00\x00\x00\x00\x00'
p388
tp389
Rp390
sg32
F0.002
sg33
(F0.301
F2.356194490192345
F0.0
tp391
sg35
g38
sg39
F659734.4572538565
sg40
g22
(g26
S'\xb76U\xa0z\x1f\xd2?'
p392
tp393
Rp394
sg44
g45
(g46
(I0
tp395
g48
tp396
Rp397
(I1
(L3L
tp398
g26
I00
S'\x0fI\xfbRA\xa4\xbf?\x0fL\x90E/\xc1\xef?\x00\x00\x00\x00\x00\x00\x00\x00'
p399
tp400
bsg54
(F0.02
F2.356194490192345
F0.035
tp401
sg16
F210000000000.0
sg56
g22
(g26
S'p\n\x94\xd8\x05\xb9\xbf?'
p402
tp403
Rp404
sba(ibikewheelcalc.bikewheelcalc.bicycle_wheel
Spoke
p405
(dp406
g21
g22
(g26
S'\x00\x00\x00\x00\x00\x00\x00\x00'
p407
tp408
Rp409
sg32
F0.002
sg33
(F0.301
F2.4870941840919194
F-0.0
tp410
sg35
g68
sg39
F659734.4572538565
sg40
g22
(g26
S'\xb76U\xa0z\x1f\xd2?'
p411
tp412
Rp413
sg44
g45
(g46
(I0
tp414
g48
tp415
Rp416
(I1
(L3L
tp417
g26
I00
S'\x0fI\xfbRA\xa4\xbf\xbf\x0fL\x90E/\xc1\xef?\x00\x00\x00\x00\x00\x00\x00\x00'
p418
tp419
bsg54
(F0.02
F2.4870941840919194
F-0.035
tp420
sg16
F210000000000.0
sg56
g22
(g26
S'p\n\x94\xd8\x05\xb9\xbf\xbf'
p421
tp422
Rp423
sba(ibikewheelcalc.bikewheelcalc.bicycle_wheel
Spoke
p424
(dp425
g21
g22
(g26
S'\x00\x00\x00\x00\x00\x00\x00\x00'
p426
tp427
Rp428
sg32
F0.002
sg33
(F0.301
F2.617993877991494
F0.0
tp429
sg35
g38
sg39
F659734.4572538565
sg40
g22
(g26
S'\xb76U\xa0z\x1f\xd2?'
p430
tp431
Rp432
sg44
g45
(g46
(I0
tp433
g48
tp434
Rp435
(I1
(L3L
tp436
g26
I00
S'\x0fI\xfbRA\xa4\xbf?\x0fL\x90E/\xc1\xef?\x00\x00\x00\x00\x00\x00\x00\x00'
p437
tp438
bsg54
(F0.02
F2.617993877991494
F0.035
tp439
sg16
F210000000000.0
sg56
g22
(g26
S'p\n\x94\xd8\x05\xb9\xbf?'
p440
tp441
Rp442
sba(ibikewheelcalc.bikewheelcalc.bicycle_wheel
Spoke
p443
(dp444
g21
g22
(g26
S'\x00\x00\x00\x00\x00\x00\x00\x00'
p445
tp446
Rp447
sg32
F0.002
sg33
(F0.301
F2.748893571891069
F-0.0
tp448
sg35
g68
sg39
F659734.4572538565
sg40
g22
(g26
S'\xb76U\xa0z\x1f\xd2?'
p449
tp450
Rp451
sg44
g45
(g46
(I0
tp452
g48
tp453
Rp454
(I1
(L3L
tp455
g26
I00
S'\x0fI\xfbRA\xa4\xbf\xbf\x0fL\x90E/\xc1\xef?\x00\x00\x00\x00\x00\x00\x00\x00'
p456
tp457
bsg54
(F0.02
F2.748893571891069
F-0.035
tp458
sg16
F210000000000.0
sg56
g22
(g26
S'p\n\x94\xd8\x05\xb9\xbf\xbf'
p459
tp460
Rp461
sba(ibikewheelcalc.bikewheelcalc.bicycle_wheel
Spoke
p462
(dp463
g21
g22
(g26
S'\x00\x00\x00\x00\x00\x00\x00\x00'
p464
tp465
Rp466
sg32
F0.002
sg33
(F0.301
F2.8797932657906435
F0.0
tp467
sg35
g38
sg39
F659734.4572538565
sg40
g22
(g26
S'\xb76U\xa0z\x1f\xd2?'
p468
tp469
Rp470
sg44
g45
(g46
(I0
tp471
g48
tp472
Rp473
(I1
(L3L
tp474
g26
I00
S'\x0fI\xfbRA\xa4\xbf?\x0fL\x90E/\xc1\xef?\x00\x00\x00\x00\x00\x00\x00\x00'
p475
tp476
bsg54
(F0.02
F2.8797932657906435
F0.035
tp477
sg16
F210000000000.0
sg56
g22
(g26
S'p\n\x94\xd8\x05\xb9\xbf?'
p478
tp479
Rp480
sba(ibikewheelcalc.bikewheelcalc.bicycle_wheel
Spoke
p481
(dp482
g21
g22
(g26
S'\x00\x00\x00\x00\x00\x00\x00\x00'
p483
tp484
Rp485
sg32
F0.002
sg33
(F0.301
F3.010692959690218
F-0.0
tp486
sg35
g68
sg39
F659734.4572538565
sg40
g22
(g26
S'\xb76U\xa0z\x1f\xd2?'
p487
tp488
Rp489
sg44
g45
(g46
(I0
tp490
g48
tp491
Rp492
(I1
(L3L
tp493
g26
I00
S'\x0fI\xfbRA\xa4\xbf\xbf\x0fL\x90E/\xc1\xef?\x00\x00\x00\x00\x00\x00\x00\x00'
p494
tp495
bsg54
(F0.02
F3.010692959690218
F-0.035
tp496
sg16
F210000000000.0
sg56
g22
(g26
S'p\n\x94\xd8\x05\xb9\xbf\xbf'
p497
tp498
Rp499
sba(ibikewheelcalc.bikewheelcalc.bicycle_wheel
Spoke
p500
(dp501
g21
g22
(g26
S'\x00\x00\x00\x00\x00\x00\x00\x00'
p502
tp503
Rp504
sg32
F0.002
sg33
(F0.301
F3.141592653589793
F0.0
tp505
sg35
g38
sg39
F659734.4572538565
sg40
g22
(g26
S'\xb76U\xa0z\x1f\xd2?'
p506
tp507
Rp508
sg44
g45
(g46
(I0
tp509
g48
tp510
Rp511
(I1
(L3L
tp512
g26
I00
S'\x0fI\xfbRA\xa4\xbf?\x0fL\x90E/\xc1\xef?\x00\x00\x00\x00\x00\x00\x00\x00'
p513
tp514
bsg54
(F0.02
F3.141592653589793
F0.035
tp515
sg16
F210000000000.0
sg56
g22
(g26
S'p\n\x94\xd8\x05\xb9\xbf?'
p516
tp517
Rp518
sba(ibikewheelcalc.bikewheelcalc.bicycle_wheel
Spoke
p519
(dp520
g21
g22
(g26
S'\x00\x00\x00\x00\x00\x00\x00\x00'
p521
tp522
Rp523
sg32
F0.002
sg33
(F0.301
F3.2724923474893677
F-0.0
tp524
sg35
g68
sg39
F659734.4572538565
sg40
g22
(g26
S'\xb76U\xa0z\x1f\xd2?'
p525
tp526
Rp527
sg44
g45
(g46
(I0
tp528
g48
tp529
Rp530
(I1
(L3L
tp531
g26
I00
S'\x0fI\xfbRA\xa4\xbf\xbf\x0fL\x90E/\xc1\xef?\x00\x00\x00\x00\x00\x00\x00\x00'
p532
tp533
bsg54
(F0.02
F3.2724923474893677
F-0.035
tp534
sg16
F210000000000.0
sg56
g22
(g26
S'p\n\x94\xd8\x05\xb9\xbf\xbf'
p535
tp536
Rp537
sba(ibikewheelcalc.bikewheelcalc.bicycle_wheel
Spoke
p538
(dp539
g21
g22
(g26
S'\x00\x00\x00\x00\x00\x00\x00\x00'
p540
tp541
Rp542
sg32
F0.002
sg33
(F0.301
F3.4033920413889422
F0.0
tp543
sg35
g38
sg39
F659734.4572538565
sg40
g22
(g26
S'\xb76U\xa0z\x1f\xd2?'
p544
tp545
Rp546
sg44
g45
(g46
(I0
tp547
g48
tp548
Rp549
(I1
(L3L
tp550
g26
I00
S'\x0fI\xfbRA\xa4\xbf?\x0fL\x90E/\xc1\xef?\x00\x00\x00\x00\x00\x00\x00\x00'
p551
tp552
bsg54
(F0.02
F3.4033920413889422
F0.035
tp553
sg16
F210000000000.0
sg56
g22
(g26
S'p\n\x94\xd8\x05\xb9\xbf?'
p554
tp555
Rp556
sba(ibikewheelcalc.bikewheelcalc.bicycle_wheel
Spoke
p557
(dp558
g21
g22
(g26
S'\x00\x00\x00\x00\x00\x00\x00\x00'
p559
tp560
Rp561
sg32
F0.002
sg33
(F0.301
F3.534291735288517
F-0.0
tp562
sg35
g68
sg39
F659734.4572538565
sg40
g22
(g26
S'\xb76U\xa0z\x1f\xd2?'
p563
tp564
Rp565
sg44
g45
(g46
(I0
tp566
g48
tp567
Rp568
(I1
(L3L
tp569
g26
I00
S'\x0fI\xfbRA\xa4\xbf\xbf\x0fL\x90E/\xc1\xef?\x00\x00\x00\x00\x00\x00\x00\x00'
p570
tp571
bsg54
(F0.02
F3.534291735288517
F-0.035
tp572
sg16
F210000000000.0
sg56
g22
(g26
S'p\n\x94\xd8\x05\xb9\xbf\xbf'
p573
tp574
Rp575
sba(ibikewheelcalc.bikewheelcalc.bicycle_wheel
Spoke
p576
(dp577
g21
g22
(g26
S'\x00\x00\x00\x00\x00\x00\x00\x00'
p578
tp579
Rp580
sg32
F0.002
sg33
(F0.301
F3.665191429188092
F0.0
tp581
sg35
g38
sg39
F659734.4572538565
sg40
g22
(g26
S'\xb76U\xa0z\x1f\xd2?'
p582
tp583
Rp584
sg44
g45
(g46
(I0
tp585
g48
tp586
Rp587
(I1
(L3L
tp588
g26
I00
S'\x0fI\xfbRA\xa4\xbf?\x0fL\x90E/\xc1\xef?\x00\x00\x00\x00\x00\x00\x00\x00'
p589
tp590
bsg54
(F0.02
F3.665191429188092
F0.035
tp591
sg16
F210000000000.0
sg56
g22
(g26
S'p\n\x94\xd8\x05\xb9\xbf?'
p592
tp593
Rp594
sba(ibikewheelcalc.bikewheelcalc.bicycle_wheel
Spoke
p595
(dp596
g21
g22
(g26
S'\x00\x00\x00\x00\x00\x00\x00\x00'
p597
tp598
Rp599
sg32
F0.002
sg33
(F0.301
F3.7960911230876664
F-0.0
tp600
sg35
g68
sg39
F659734.4572538565
sg40
g22
(g26
S'\xb76U\xa0z\x1f\xd2?'
p601
tp602
Rp603
sg44
g45
(g46
(I0
tp604
g48
tp605
Rp606
(I1
(L3L
tp607
g26
I00
S'\x0fI\xfbRA\xa4\xbf\xbf\x0fL\x90E/\xc1\xef?\x00\x00\x00\x00\x00\x00\x00\x00'
p608
tp609
bsg54
(F0.02
F3.7960911230876664
F-0.035
tp610
sg16
F210000000000.0
sg56
g22
(g26
S'p\n\x94\xd8\x05\xb9\xbf\xbf'
p611
tp612
Rp613
sba(ibikewheelcalc.bikewheelcalc.bicycle_wheel
Spoke
p614
(dp615
g21
g22
(g26
S'\x00\x00\x00\x00\x00\x00\x00\x00'
p616
tp617
Rp618
sg32
F0.002
sg33
(F0.301
F3.926990816987241
F0.0
tp619
sg35
g38
sg39
F659734.4572538565
sg40
g22
(g26
S'\xb76U\xa0z\x1f\xd2?'
p620
tp621
Rp622
sg44
g45
(g46
(I0
tp623
g48
tp624
Rp625
(I1
(L3L
tp626
g26
I00
S'\x0fI\xfbRA\xa4\xbf?\x0fL\x90E/\xc1\xef?\x00\x00\x00\x00\x00\x00\x00\x00'
p627
tp628
bsg54
(F0.02
F3.926990816987241
F0.035
tp629
sg16
F210000000000.0
sg56
g22
(g26
S'p\n\x94\xd8\x05\xb9\xbf?'
p630
tp631
Rp632
sba(ibikewheelcalc.bikewheelcalc.bicycle_wheel
Spoke
p633
(dp634
g21
g22
(g26
S'\x00\x00\x00\x00\x00\x00\x00\x00'
p635
tp636
Rp637
sg32
F0.002
sg33
(F0.301
F4.057890510886816
F-0.0
tp638
sg35
g68
sg39
F659734.4572538565
sg40
g22
(g26
S'\xb76U\xa0z\x1f\xd2?'
p639
tp640
Rp641
sg44
g45
(g46
(I0
tp642
g48
tp643
Rp644
(I1
(L3L
tp645
g26
I00
S'\x0fI\xfbRA\xa4\xbf\xbf\x0fL\x90E/\xc1\xef?\x00\x00\x00\x00\x00\x00\x00\x00'
p646
tp647
bsg54
(F0.02
F4.057890510886816
F-0.035
tp648
sg16
F210000000000.0
sg56
g22
(g26
S'p\n\x94\xd8\x05\xb9\xbf\xbf'
p649
tp650
Rp651
sba(ibikewheelcalc.bikewheelcalc.bicycle_wheel
Spoke
p652
(dp653
g21
g22
(g26
S'\x00\x00\x00\x00\x00\x00\x00\x00'
p654
tp655
Rp656
sg32
F0.002
sg33
(F0.301
F4.1887902047863905
F0.0
tp657
sg35
g38
sg39
F659734.4572538565
sg40
g22
(g26
S'\xb76U\xa0z\x1f\xd2?'
p658
tp659
Rp660
sg44
g45
(g46
(I0
tp661
g48
tp662
Rp663
(I1
(L3L
tp664
g26
I00
S'\x0fI\xfbRA\xa4\xbf?\x0fL\x90E/\xc1\xef?\x00\x00\x00\x00\x00\x00\x00\x00'
p665
tp666
bsg54
(F0.02
F4.1887902047863905
F0.035
tp667
sg16
F210000000000.0
sg56
g22
(g26
S'p\n\x94\xd8\x05\xb9\xbf?'
p668
tp669
Rp670
sba(ibikewheelcalc.bikewheelcalc.bicycle_wheel
Spoke
p671
(dp672
g21
g22
(g26
S'\x00\x00\x00\x00\x00\x00\x00\x00'
p673
tp674
Rp675
sg32
F0.002
sg33
(F0.301
F4.319689898685965
F-0.0
tp676
sg35
g68
sg39
F659734.4572538565
sg40
g22
(g26
S'\xb76U\xa0z\x1f\xd2?'
p677
tp678
Rp679
sg44
g45
(g46
(I0
tp680
g48
tp681
Rp682
(I1
(L3L
tp683
g26
I00
S'\x0fI\xfbRA\xa4\xbf\xbf\x0fL\x90E/\xc1\xef?\x00\x00\x00\x00\x00\x00\x00\x00'
p684
tp685
bsg54
(F0.02
F4.319689898685965
F-0.035
tp686
sg16
F210000000000.0
sg56
g22
(g26
S'p\n\x94\xd8\x05\xb9\xbf\xbf'
p687
tp688
Rp689
sba(ibikewheelcalc.bikewheelcalc.bicycle_wheel
Spoke
p690
(dp691
g21
g22
(g26
S'\x00\x00\x00\x00\x00\x00\x00\x00'
p692
tp693
Rp694
sg32
F0.002
sg33
(F0.301
F4.45058959258554
F0.0
tp695
sg35
g38
sg39
F659734.4572538565
sg40
g22
(g26
S'\xb76U\xa0z\x1f\xd2?'
p696
tp697
Rp698
sg44
g45
(g46
(I0
tp699
g48
tp700
Rp701
(I1
(L3L
tp702
g26
I00
S'\x0fI\xfbRA\xa4\xbf?\x0fL\x90E/\xc1\xef?\x00\x00\x00\x00\x00\x00\x00\x00'
p703
tp704
bsg54
(F0.02
F4.45058959258554
F0.035
tp705
sg16
F210000000000.0
sg56
g22
(g26
S'p\n\x94\xd8\x05\xb9\xbf?'
p706
tp707
Rp708
sba(ibikewheelcalc.bikewheelcalc.bicycle_wheel
Spoke
p709
(dp710
g21
g22
(g26
S'\x00\x00\x00\x00\x00\x00\x00\x00'
p711
tp712
Rp713
sg32
F0.002
sg33
(F0.301
F4.581489286485114
F-0.0
tp714
sg35
g68
sg39
F659734.4572538565
sg40
g22
(g26
S'\xb76U\xa0z\x1f\xd2?'
p715
tp716
Rp717
sg44
g45
(g46
(I0
tp718
g48
tp719
Rp720
(I1
(L3L
tp721
g26
I00
S'\x0fI\xfbRA\xa4\xbf\xbf\x0fL\x90E/\xc1\xef?\x00\x00\x00\x00\x00\x00\x00\x00'
p722
tp723
bsg54
(F0.02
F4.581489286485114
F-0.035
tp724
sg16
F210000000000.0
sg56
g22
(g26
S'p\n\x94\xd8\x05\xb9\xbf\xbf'
p725
tp726
Rp727
sba(ibikewheelcalc.bikewheelcalc.bicycle_wheel
Spoke
p728
(dp729
g21
g22
(g26
S'\x00\x00\x00\x00\x00\x00\x00\x00'
p730
tp731
Rp732
sg32
F0.002
sg33
(F0.301
F4.71238898038469
F0.0
tp733
sg35
g38
sg39
F659734.4572538565
sg40
g22
(g26
S'\xb76U\xa0z\x1f\xd2?'
p734
tp735
Rp736
sg44
g45
(g46
(I0
tp737
g48
tp738
Rp739
(I1
(L3L
tp740
g26
I00
S'\x0fI\xfbRA\xa4\xbf?\x0fL\x90E/\xc1\xef?\x00\x00\x00\x00\x00\x00\x00\x00'
p741
tp742
bsg54
(F0.02
F4.71238898038469
F0.035
tp743
sg16
F210000000000.0
sg56
g22
(g26
S'p\n\x94\xd8\x05\xb9\xbf?'
p744
tp745
Rp746
sba(ibikewheelcalc.bikewheelcalc.bicycle_wheel
Spoke
p747
(dp748
g21
g22
(g26
S'\x00\x00\x00\x00\x00\x00\x00\x00'
p749
tp750
Rp751
sg32
F0.002
sg33
(F0.301
F4.843288674284264
F-0.0
tp752
sg35
g68
sg39
F659734.4572538565
sg40
g22
(g26
S'\xb76U\xa0z\x1f\xd2?'
p753
tp754
Rp755
sg44
g45
(g46
(I0
tp756
g48
tp757
Rp758
(I1
(L3L
tp759
g26
I00
S'\x0fI\xfbRA\xa4\xbf\xbf\x0fL\x90E/\xc1\xef?\x00\x00\x00\x00\x00\x00\x00\x00'
p760
tp761
bsg54
(F0.02
F4.843288674284264
F-0.035
tp762
sg16
F210000000000.0
sg56
g22
(g26
S'p\n\x94\xd8\x05\xb9\xbf\xbf'
p763
tp764
Rp765
sba(ibikewheelcalc.bikewheelcalc.bicycle_wheel
Spoke
p766
(dp767
g21
g22
(g26
S'\x00\x00\x00\x00\x00\x00\x00\x00'
p768
tp769
Rp770
sg32
F0.002
sg33
(F0.301
F4.974188368183839
F0.0
tp771
sg35
g38
sg39
F659734.4572538565
sg40
g22
(g26
S'\xb76U\xa0z\x1f\xd2?'
p772
tp773
Rp774
sg44
g45
(g46
(I0
tp775
g48
tp776
Rp777
(I1
(L3L
tp778
g26
I00
S'\x0fI\xfbRA\xa4\xbf?\x0fL\x90E/\xc1\xef?\x00\x00\x00\x00\x00\x00\x00\x00'
p779
tp780
bsg54
(F0.02
F4.974188368183839
F0.035
tp781
sg16
F210000000000.0
sg56
g22
(g26
S'p\n\x94\xd8\x05\xb9\xbf?'
p782
tp783
Rp784
sba(ibikewheelcalc.bikewheelcalc.bicycle_wheel
Spoke
p785
(dp786
g21
g22
(g26
S'\x00\x00\x00\x00\x00\x00\x00\x00'
p787
tp788
Rp789
sg32
F0.002
sg33
(F0.301
F5.105088062083413
F-0.0
tp790
sg35
g68
sg39
F659734.4572538565
sg40
g22
(g26
S'\xb76U\xa0z\x1f\xd2?'
p791
tp792
Rp793
sg44
g45
(g46
(I0
tp794
g48
tp795
Rp796
(I1
(L3L
tp797
g26
I00
S'\x0fI\xfbRA\xa4\xbf\xbf\x0fL\x90E/\xc1\xef?\x00\x00\x00\x00\x00\x00\x00\x00'
p798
tp799
bsg54
(F0.02
F5.105088062083413
F-0.035
tp800
sg16
F210000000000.0
sg56
g22
(g26
S'p\n\x94\xd8\x05\xb9\xbf\xbf'
p801
tp802
Rp803
sba(ibikewheelcalc.bikewheelcalc.bicycle_wheel
Spoke
p804
(dp805
g21
g22
(g26
S'\x00\x00\x00\x00\x00\x00\x00\x00'
p806
tp807
Rp808
sg32
F0.002
sg33
(F0.301
F5.235987755982988
F0.0
tp809
sg35
g38
sg39
F659734.4572538565
sg40
g22
(g26
S'\xb76U\xa0z\x1f\xd2?'
p810
tp811
Rp812
sg44
g45
(g46
(I0
tp813
g48
tp814
Rp815
(I1
(L3L
tp816
g26
I00
S'\x0fI\xfbRA\xa4\xbf?\x0fL\x90E/\xc1\xef?\x00\x00\x00\x00\x00\x00\x00\x00'
p817
tp818
bsg54
(F0.02
F5.235987755982988
F0.035
tp819
sg16
F210000000000.0
sg56
g22
(g26
S'p\n\x94\xd8\x05\xb9\xbf?'
p820
tp821
Rp822
sba(ibikewheelcalc.bikewheelcalc.bicycle_wheel
Spoke
p823
(dp824
g21
g22
(g26
S'\x00\x00\x00\x00\x00\x00\x00\x00'
p825
tp826
Rp827
sg32
F0.002
sg33
(F0.301
F5.3668874498825625
F-0.0
tp828
sg35
g68
sg39
F659734.4572538565
sg40
g22
(g26
S'\xb76U\xa0z\x1f\xd2?'
p829
tp830
Rp831
sg44
g45
(g46
(I0
tp832
g48
tp833
Rp834
(I1
(L3L
tp835
g26
I00
S'\x0fI\xfbRA\xa4\xbf\xbf\x0fL\x90E/\xc1\xef?\x00\x00\x00\x00\x00\x00\x00\x00'
p836
tp837
bsg54
(F0.02
F5.3668874498825625
F-0.035
tp838
sg16
F210000000000.0
sg56
g22
(g26
S'p\n\x94\xd8\x05\xb9\xbf\xbf'
p839
tp840
Rp841
sba(ibikewheelcalc.bikewheelcalc.bicycle_wheel
Spoke
p842
(dp843
g21
g22
(g26
S'\x00\x00\x00\x00\x00\x00\x00\x00'
p844
tp845
Rp846
sg32
F0.002
sg33
(F0.301
F5.497787143782138
F0.0
tp847
sg35
g38
sg39
F659734.4572538565
sg40
g22
(g26
S'\xb76U\xa0z\x1f\xd2?'
p848
tp849
Rp850
sg44
g45
(g46
(I0
tp851
g48
tp852
Rp853
(I1
(L3L
tp854
g26
I00
S'\x0fI\xfbRA\xa4\xbf?\x0fL\x90E/\xc1\xef?\x00\x00\x00\x00\x00\x00\x00\x00'
p855
tp856
bsg54
(F0.02
F5.497787143782138
F0.035
tp857
sg16
F210000000000.0
sg56
g22
(g26
S'p\n\x94\xd8\x05\xb9\xbf?'
p858
tp859
Rp860
sba(ibikewheelcalc.bikewheelcalc.bicycle_wheel
Spoke
p861
(dp862
g21
g22
(g26
S'\x00\x00\x00\x00\x00\x00\x00\x00'
p863
tp864
Rp865
sg32
F0.002
sg33
(F0.301
F5.6286868376817125
F-0.0
tp866
sg35
g68
sg39
F659734.4572538565
sg40
g22
(g26
S'\xb76U\xa0z\x1f\xd2?'
p867
tp868
Rp869
sg44
g45
(g46
(I0
tp870
g48
tp871
Rp872
(I1
(L3L
tp873
g26
I00
S'\x0fI\xfbRA\xa4\xbf\xbf\x0fL\x90E/\xc1\xef?\x00\x00\x00\x00\x00\x00\x00\x00'
p874
tp875
bsg54
(F0.02
F5.6286868376817125
F-0.035
tp876
sg16
F210000000000.0
sg56
g22
(g26
S'p\n\x94\xd8\x05\xb9\xbf\xbf'
p877
tp878
Rp879
sba(ibikewheelcalc.bikewheelcalc.bicycle_wheel
Spoke
p880
(dp881
g21
g22
(g26
S'\x00\x00\x00\x00\x00\x00\x00\x00'
p882
tp883
Rp884
sg32
F0.002
sg33
(F0.301
F5.759586531581287
F0.0
tp885
sg35
g38
sg39
F659734.4572538565
sg40
g22
(g26
S'\xb76U\xa0z\x1f\xd2?'
p886
tp887
Rp888
sg44
g45
(g46
(I0
tp889
g48
tp890
Rp891
(I1
(L3L
tp892
g26
I00
S'\x0fI\xfbRA\xa4\xbf?\x0fL\x90E/\xc1\xef?\x00\x00\x00\x00\x00\x00\x00\x00'
p893
tp894
bsg54
(F0.02
F5.759586531581287
F0.035
tp895
sg16
F210000000000.0
sg56
g22
(g26
S'p\n\x94\xd8\x05\xb9\xbf?'
p896
tp897
Rp898
sba(ibikewheelcalc.bikewheelcalc.bicycle_wheel
Spoke
p899
(dp900
g21
g22
(g26
S'\x00\x00\x00\x00\x00\x00\x00\x00'
p901
tp902
Rp903
sg32
F0.002
sg33
(F0.301
F5.890486225480862
F-0.0
tp904
sg35
g68
sg39
F659734.4572538565
sg40
g22
(g26
S'\xb76U\xa0z\x1f\xd2?'
p905
tp906
Rp907
sg44
g45
(g46
(I0
tp908
g48
tp909
Rp910
(I1
(L3L
tp911
g26
I00
S'\x0fI\xfbRA\xa4\xbf\xbf\x0fL\x90E/\xc1\xef?\x00\x00\x00\x00\x00\x00\x00\x00'
p912
tp913
bsg54
(F0.02
F5.890486225480862
F-0.035
tp914
sg16
F210000000000.0
sg56
g22
(g26
S'p\n\x94\xd8\x05\xb9\xbf\xbf'
p915
tp916
Rp917
sba(ibikewheelcalc.bikewheelcalc.bicycle_wheel
Spoke
p918
(dp919
g21
g22
(g26
S'\x00\x00\x00\x00\x00\x00\x00\x00'
p920
tp921
Rp922
sg32
F0.002
sg33
(F0.301
F6.021385919380436
F0.0
tp923
sg35
g38
sg39
F659734.4572538565
sg40
g22
(g26
S'\xb76U\xa0z\x1f\xd2?'
p924
tp925
Rp926
sg44
g45
(g46
(I0
tp927
g48
tp928
Rp929
(I1
(L3L
tp930
g26
I00
S'\x0fI\xfbRA\xa4\xbf?\x0fL\x90E/\xc1\xef?\x00\x00\x00\x00\x00\x00\x00\x00'
p931
tp932
bsg54
(F0.02
F6.021385919380436
F0.035
tp933
sg16
F210000000000.0
sg56
g22
(g26
S'p\n\x94\xd8\x05\xb9\xbf?'
p934
tp935
Rp936
sba(ibikewheelcalc.bikewheelcalc.bicycle_wheel
Spoke
p937
(dp938
g21
g22
(g26
S'\x00\x00\x00\x00\x00\x00\x00\x00'
p939
tp940
Rp941
sg32
F0.002
sg33
(F0.301
F6.152285613280011
F-0.0
tp942
sg35
g68
sg39
F659734.4572538565
sg40
g22
(g26
S'\xb76U\xa0z\x1f\xd2?'
p943
tp944
Rp945
sg44
g45
(g46
(I0
tp946
g48
tp947
Rp948
(I1
(L3L
tp949
g26
I00
S'\x0fI\xfbRA\xa4\xbf\xbf\x0fL\x90E/\xc1\xef?\x00\x00\x00\x00\x00\x00\x00\x00'
p950
tp951
bsg54
(F0.02
F6.152285613280011
F-0.035
tp952
sg16
F210000000000.0
sg56
g22
(g26
S'p\n\x94\xd8\x05\xb9\xbf\xbf'
p953
tp954
Rp955
sbasS'hub'
p956
(ibikewheelcalc.bikewheelcalc.bicycle_wheel
Hub
p957
(dp958
S'radius1'
p959
F0.02
sS'diam1'
p960
F0.04
sS'diam2'
p961
F0.04
sS'radius2'
p962
F0.02
sS'width2'
p963
F0.035
sS'width1'
p964
F0.035
sbsb.